(lp0
(dp1
S'limited'
p2
I1986
sS'repositioning'
p3
I1987
sS'saturating'
p4
I2577
sS'magnetic'
p5
I7
sS'comparatively'
p6
I1988
sS'dynamic'
p7
I1675
sS'four'
p8
I1298
sS'circuitry'
p9
I1092
sS'backfilling'
p10
I2097
sS'consists'
p11
I1992
sS'integrity'
p12
I1299
sS'demagnetization'
p13
I1673
sS'whose'
p14
I1164
sS'feeding'
p15
I2578
sS'const'
p16
I1674
sS'sputtered'
p17
I1300
sS'unblocked'
p18
I2579
sS'ergs'
p19
I1993
sS'segments'
p20
I917
sS'presents'
p21
I1994
sS'thinnest'
p22
I2580
sS'under'
p23
I407
sS'sputter'
p24
I639
sS'divergent'
p25
I2581
sS'alternating'
p26
I640
sS'CASE:inta'
p27
I3668
sS'shielding'
p28
I641
sS'risk'
p29
I1995
sS'downstream'
p30
I1996
sS'interleaver'
p31
I1301
sS'desirable'
p32
I1989
sS'void'
p33
I1676
sS'rise'
p34
I1165
sS'amorphous'
p35
I727
sS'replication'
p36
I1677
sS'fabricates'
p37
I2582
sS'every'
p38
I1997
sS'peripheral'
p39
I1998
sS'overcomes'
p40
I1302
sS'affect'
p41
I2583
sS'bringing'
p42
I2584
sS'interleaved'
p43
I1999
sS'markers'
p44
I1678
sS'desirably'
p45
I2000
sS'baking'
p46
I2001
sS'exponential'
p47
I3303
sS'cause'
p48
I958
sS'solution'
p49
I1304
sS'correct'
p50
I2585
sS'debris'
p51
I1680
sS'joke'
p52
I3567
sS'enclosing'
p53
I1681
sS'enhance'
p54
I2003
sS'reliable'
p55
I1682
sS'cmp'
p56
I576
sS'force'
p57
I393
sS'ammonium'
p58
I2839
sS'excited'
p59
I2004
sS'machined'
p60
I1060
sS'consistent'
p61
I1470
sS'direct'
p62
I918
sS'pulse'
p63
I1471
sS'surrounding'
p64
I664
sS'second'
p65
I21
sS'street'
p66
I1305
sS'openings'
p67
I3534
sS'fecl'
p68
I2586
sS'air'
p69
I114
sS'milled'
p70
I2587
sS'even'
p71
I697
sS'established'
p72
I1683
sS'errors'
p73
I1167
sS'cooperating'
p74
I2005
sS'centimeter'
p75
I2006
sS'+'
p76
I1472
sS'selected'
p77
I292
sS'supplied'
p78
I860
sS'consequent'
p79
I2588
sS'bipolar'
p80
I2007
sS'interposing'
p81
I3304
sS'above'
p82
I157
sS'conduct'
p83
I2008
sS'resilient'
p84
I1473
sS'new'
p85
I1474
sS'tips'
p86
I212
sS'increasing'
p87
I450
sS'consisting'
p88
I536
sS'pressed'
p89
I2399
sS'coefficient'
p90
I1684
sS'polarity'
p91
I2009
sS'maintains'
p92
I2589
sS'simultaneously'
p93
I513
sS'obviating'
p94
I2010
sS'perforations'
p95
I2011
sS'residual'
p96
I2012
sS'here'
p97
I2590
sS'atoms'
p98
I2591
sS'deposition'
p99
I451
sS'protection'
p100
I604
sS'boron'
p101
I1306
sS'active'
p102
I452
sS'path'
p103
I311
sS'confronts'
p104
I2592
sS'obtained'
p105
I434
sS'remotely'
p106
I2961
sS'substance'
p107
I1557
sS'sidewalls'
p108
I980
sS'tapes'
p109
I2013
sS'taper'
p110
I2014
sS'k'
p111
I1076
sS'changed'
p112
I2015
sS'bumps'
p113
I2246
sS'approaches'
p114
I2594
sS'pinning'
p115
I919
sS'credit'
p116
I2595
sS'vndy'
p117
I2596
sS'permit'
p118
I1686
sS'symmetrical'
p119
I1477
sS'suitable'
p120
I475
sS'changes'
p121
I766
sS'curable'
p122
I2949
sS'diameter'
p123
I776
sS'topography'
p124
I981
sS'projection'
p125
I728
sS'stray'
p126
I1307
sS'9a'
p127
I2597
sS'proximal'
p128
I861
sS'seven'
p129
I2743
sS'highly'
p130
I920
sS'sliced'
p131
I2598
sS'visible'
p132
I1687
sS'modulated'
p133
I2599
sS'achievable'
p134
I2019
sS'total'
p135
I803
sS'unit'
p136
I453
sS'charge'
p137
I1688
sS'would'
p138
I2020
sS'<s>'
p139
I3673
sS'inductive'
p140
I200
sS'negative'
p141
I767
sS'whereas'
p142
I1742
sS'leaks'
p143
I2601
sS'm1'
p144
I2021
sS'therefore'
p145
I605
sS'm2'
p146
I2022
sS'sidegap'
p147
I1478
sS'type'
p148
I228
sS'until'
p149
I729
sS'separated'
p150
I224
sS'wears'
p151
I2722
sS'modification'
p152
I3313
sS'vpp'
p153
I2602
sS'composite'
p154
I642
sS'trackwidth'
p155
I1689
sS'expose'
p156
I698
sS'antiferromagnetically'
p157
I982
sS'curvature'
p158
I1061
sS'actuated'
p159
I2023
sS'glass'
p160
I804
sS'nft'
p161
I1416
sS'arms'
p162
I2024
sS'excellent'
p163
I768
sS'NNNUMMM'
p164
I17
sS'hole'
p165
I730
sS'aligned'
p166
I267
sS'blocking'
p167
I1690
sS'must'
p168
I1308
sS'mg'
p169
I1691
sS'join'
p170
I2604
sS'permits'
p171
I1168
sS'mo'
p172
I1062
sS'mn'
p173
I1063
sS'mk'
p174
I2605
sS'mu'
p175
I234
sS'rearward'
p176
I1949
sS'pinholes'
p177
I1223
sS'corrosive'
p178
I3405
sS'ms'
p179
I2161
sS'mr'
p180
I53
sS'example'
p181
I514
sS'exterior'
p182
I2105
sS'give'
p183
I1693
sS'impedances'
p184
I2610
sS'titanium'
p185
I699
sS'feasible'
p186
I3489
sS'rhomboid'
p187
I2026
sS'advancing'
p188
I2611
sS'absolute'
p189
I1524
sS'preferably'
p190
I318
sS'ferromagnetically'
p191
I2613
sS'end'
p192
I64
sS'silylate'
p193
I2614
sS'provide'
p194
I249
sS'verify'
p195
I2615
sS'travel'
p196
I1479
sS'damage'
p197
I665
sS'far'
p198
I2028
sS'hot'
p199
I2558
sS'playback'
p200
I1480
sS'adjacent'
p201
I126
sS'toxic'
p202
I2617
sS'gate'
p203
I2029
sS'butting'
p204
I2618
sS'faulty'
p205
I2619
sS'preferable'
p206
I2030
sS'frustums'
p207
I1309
sS'magnetostrictive'
p208
I2748
sS'after'
p209
I321
sS'minimized'
p210
I862
sS'connects'
p211
I1169
sS'induce'
p212
I1569
sS'destined'
p213
I2031
sS'minimizes'
p214
I984
sS'lap'
p215
I769
sS'parallel'
p216
I218
sS'types'
p217
I871
sS'undesired'
p218
I2034
sS'third'
p219
I204
sS'therebetween'
p220
I435
sS'descends'
p221
I2621
sS'imbedded'
p222
I2616
sS'maintain'
p223
I1170
sS'decreasing'
p224
I1362
sS'vapor'
p225
I1171
sS'order'
p226
I380
sS'wind'
p227
I2623
sS'cathodic'
p228
I3445
sS'operations'
p229
I643
sS'executed'
p230
I2036
sS'feedback'
p231
I2037
sS'over'
p232
I142
sS'executes'
p233
I2624
sS'responsive'
p234
I2625
sS'satisfies'
p235
I2238
sS'before'
p236
I921
sS'energizable'
p237
I2627
sS'bottleneck'
p238
I3131
sS'fit'
p239
I2628
sS'directional'
p240
I3018
sS'interaction'
p241
I2603
sS','
p242
I6
sS'exhibits'
p243
I1482
sS'writing'
p244
I195
sS'better'
p245
I1214
sS'production'
p246
I1483
sS'condition'
p247
I2302
sS'discharges'
p248
I2630
sS'easier'
p249
I2631
sS'overcome'
p250
I1696
sS'orientated'
p251
I2632
sS'versus'
p252
I2039
sS'then'
p253
I144
sS'them'
p254
I770
sS'blots'
p255
I2633
sS'combination'
p256
I771
sS'prevented'
p257
I772
sS'powerful'
p258
I3495
sS'diodes'
p259
I3046
sS'coplanarly'
p260
I2753
sS'break'
p261
I2260
sS'band'
p262
I1463
sS'detachment'
p263
I2041
sS'effects'
p264
I985
sS'they'
p265
I1697
sS'interrupt'
p266
I2636
sS'one'
p267
I48
sS'silver'
p268
I1698
sS'structural'
p269
I454
sS'represents'
p270
I1484
sS'several'
p271
I1184
sS'oxygen'
p272
I2042
sS'alternately'
p273
I1174
sS'l'
p274
I1700
sS'composition'
p275
I731
sS'doped'
p276
I2638
sS'filling'
p277
I2639
sS'toroidal'
p278
I773
sS'each'
p279
I60
sS'recirculating'
p280
I2043
sS'side'
p281
I66
sS'bond'
p282
I2640
sS'lifted'
p283
I2641
sS'nanogranules'
p284
I2642
sS'successively'
p285
I1485
sS'suspended'
p286
I2643
sS'durability'
p287
I2044
sS'series'
p288
I774
sS'magneto'
p289
I233
sS'displacement'
p290
I2644
sS'applicable'
p291
I2045
sS'carry'
p292
I1486
sS'strips'
p293
I1175
sS'depositing'
p294
I268
sS'magnets'
p295
I2645
sS'substantially'
p296
I143
sS'collector'
p297
I1701
sS'ring'
p298
I2046
sS'overwrite'
p299
I1064
sS'projections'
p300
I3508
sS'large'
p301
I545
sS'network'
p302
I2047
sS'driving'
p303
I1312
sS'therebelow'
p304
I2646
sS'helically'
p305
I1379
sS'restricted'
p306
I2647
sS'particles'
p307
I544
sS'adhesion'
p308
I922
sS'rf'
p309
I1176
sS'alloying'
p310
I2049
sS'reader'
p311
I987
sS'rh'
p312
I2051
sS'sliding'
p313
I1066
sS'electroless'
p314
I2052
sS'turning'
p315
I2053
sS'linear'
p316
I700
sS'barrier'
p317
I606
sS'succession'
p318
I2648
sS'midpoint'
p319
I2649
sS'voltages'
p320
I881
sS'free'
p321
I117
sS'standard'
p322
I2650
sS'assures'
p323
I2651
sS'polarize'
p324
I2652
sS'formation'
p325
I331
sS'dgl'
p326
I2054
sS'sensors'
p327
I666
sS'hysteresis'
p328
I2761
sS'bilayer'
p329
I1703
sS'barkhausen'
p330
I775
sS'incorporates'
p331
I805
sS'exposing'
p332
I2653
sS'recovering'
p333
I2654
sS'created'
p334
I1704
sS'starts'
p335
I2055
sS'notching'
p336
I2056
sS'silicon'
p337
I332
sS'bears'
p338
I3499
sS'machining'
p339
I537
sS'oppose'
p340
I2656
sS'incorporated'
p341
I1314
sS'moving'
p342
I1067
sS'onto'
p343
I345
sS'purpose'
p344
I1487
sS'recite'
p345
I2058
sS'already'
p346
I2657
sS'features'
p347
I732
sS'thereon'
p348
I476
sS'dodecyl'
p349
I2658
sS'primary'
p350
I1178
sS'thereof'
p351
I250
sS'channels'
p352
I2060
sS'spinning'
p353
I1488
sS'plurality'
p354
I128
sS'another'
p355
I279
sS'insulation'
p356
I138
sS'fecr'
p357
I2659
sS'thick'
p358
I495
sS'photomagnetic'
p359
I1315
sS'electronic'
p360
I556
sS'wirebonding'
p361
I2774
sS'likely'
p362
I2061
sS'similarly'
p363
I1179
sS'top'
p364
I81
sS'struts'
p365
I2355
sS'equilibria'
p366
I2661
sS'approximately'
p367
I436
sS'stack'
p368
I231
sS'needed'
p369
I1866
sS'rates'
p370
I1705
sS'legs'
p371
I455
sS'ranging'
p372
I2662
sS'ri'
p373
I2928
sS'preheating'
p374
I2663
sS'servo'
p375
I251
sS'mechanism'
p376
I2515
sS'centered'
p377
I988
sS'tool'
p378
I989
sS'nife'
p379
I368
sS'17b'
p380
I2664
sS'17a'
p381
I2665
sS'integrally'
p382
I1706
sS'predictable'
p383
I2062
sS'characterisics'
p384
I2666
sS'maximizing'
p385
I2667
sS'begins'
p386
I2668
sS'distance'
p387
I270
sS'target'
p388
I644
sS'bits'
p389
I2114
sS'divert'
p390
I3661
sS'cofecr'
p391
I2670
sS'rate'
p392
I577
sS'preformed'
p393
I2063
sS'preparation'
p394
I1707
sS'matter'
p395
I2064
sS'overlie'
p396
I2065
sS'transformers'
p397
I3077
sS'iron'
p398
I282
sS'enables'
p399
I990
sS'conforms'
p400
I2671
sS'bridge'
p401
I2066
sS'vector'
p402
I2672
sS'photolithography'
p403
I1489
sS'membranes'
p404
I2673
sS'paddles'
p405
I2674
sS'spectrum'
p406
I2067
sS'raw'
p407
I1708
sS'electrodepositing'
p408
I3236
sS'seed'
p409
I136
sS'magentic'
p410
I2675
sS'manner'
p411
I515
sS'unaffected'
p412
I2676
sS'relatively'
p413
I418
sS'absorber'
p414
I2068
sS'strength'
p415
I1316
sS'latter'
p416
I2678
sS'-'
p417
I12
sS'isolated'
p418
I1709
sS'metallic'
p419
I607
sS'oriented'
p420
I702
sS'recommended'
p421
I2679
sS'materials'
p422
I358
sS'absorbed'
p423
I2680
sS'forces'
p424
I2069
sS'isolates'
p425
I2681
sS'reversed'
p426
I2507
sS'relevant'
p427
I3568
sS'insulated'
p428
I516
sS'rsg'
p429
I2239
sS'optimizes'
p430
I2682
sS'though'
p431
I2683
sS'object'
p432
I1180
sS'viscosity'
p433
I863
sS'wells'
p434
I2684
sS'eliminates'
p435
I733
sS'extending'
p436
I261
sS'optimized'
p437
I2070
sS'regular'
p438
I2685
sS'insulates'
p439
I2686
sS'phase'
p440
I1710
sS'coil'
p441
I38
sS'glow'
p442
I2687
sS'dummy'
p443
I1070
sS'elminates'
p444
I2688
sS'environmental'
p445
I1711
sS'calculated'
p446
I1490
sS'widest'
p447
I3056
sS'm'
p448
I210
sS'rotary'
p449
I2071
sS'curie'
p450
I2072
sS'positional'
p451
I1491
sS'prevention'
p452
I1907
sS'magnetosensitive'
p453
I1422
sS'sum'
p454
I1712
sS'contacted'
p455
I2690
sS'reductions'
p456
I3404
sS'probe'
p457
I1181
sS'waveforms'
p458
I2691
sS'radio'
p459
I3412
sS'stepping'
p460
I2692
sS'constituent'
p461
I3503
sS'analogue'
p462
I2693
sS'd2'
p463
I2694
sS'electro'
p464
I2637
sS'd1'
p465
I2695
sS'planarized'
p466
I808
sS'touches'
p467
I2696
sS'occurring'
p468
I1071
sS'paralleling'
p469
I2697
sS'magnetotransistor'
p470
I2698
sS'planarizes'
p471
I2699
sS'photoimaging'
p472
I2075
sS'rectangle'
p473
I2076
sS'continuity'
p474
I2700
sS'plate'
p475
I578
sS'mixture'
p476
I1492
sS'establishes'
p477
I2701
sS'di'
p478
I2702
sS'stop'
p479
I924
sS'dc'
p480
I855
sS'preferred'
p481
I382
sS'degradation'
p482
I2077
sS'photoelectric'
p483
I2704
sS'reversal'
p484
I1715
sS'supplies'
p485
I2705
sS'tungsten'
p486
I1318
sS'nonair'
p487
I1493
sS'onboard'
p488
I2078
sS'dr'
p489
I2706
sS'net'
p490
I1716
sS'contributes'
p491
I2707
sS'bar'
p492
I457
sS'covering'
p493
I645
sS'fields'
p494
I333
sS'irregularities'
p495
I2708
sS'twice'
p496
I2079
sS'interspersed'
p497
I2709
sS'architecture'
p498
I2710
sS'flanked'
p499
I2711
sS'emr'
p500
I1627
sS'clean'
p501
I2373
sS'transistors'
p502
I1494
sS'automatic'
p503
I2080
sS'transforms'
p504
I2771
sS'respond'
p505
I2081
sS'electrodes'
p506
I667
sS'sensitivity'
p507
I734
sS'testing'
p508
I865
sS'reacted'
p509
I3504
sS'detection'
p510
I903
sS'pads'
p511
I365
sS'electrostatic'
p512
I992
sS'radius'
p513
I2713
sS'result'
p514
I608
sS'gimbal'
p515
I538
sS'optimum'
p516
I1073
sS'incorporating'
p517
I1717
sS'techniques'
p518
I703
sS'said'
p519
I219
sS'capacity'
p520
I1319
sS'brewster'
p521
I2714
sS'away'
p522
I477
sS'microns'
p523
I2715
sS'connective'
p524
I1644
sS'symmetric'
p525
I2717
sS'protected'
p526
I1359
sS'secured'
p527
I1940
sS'conductive'
p528
I85
sS'drawn'
p529
I1320
sS'semiconductor'
p530
I718
sS'tolerance'
p531
I1541
sS'shields'
p532
I609
sS'preserve'
p533
I2719
sS'wf'
p534
I2083
sS'stiffening'
p535
I2720
sS'terms'
p536
I2721
sS'reproduction'
p537
I414
sS'extend'
p538
I496
sS'nature'
p539
I2723
sS'restricting'
p540
I2724
sS'lapping'
p541
I111
sS'metal'
p542
I156
sS'boss'
p543
I2084
sS'cut'
p544
I566
sS'wear'
p545
I383
sS'extent'
p546
I2085
sS'contamination'
p547
I2725
sS'carbon'
p548
I579
sS'angling'
p549
I1719
sS'improve'
p550
I610
sS'faced'
p551
I2086
sS'received'
p552
I2726
sS'essentially'
p553
I646
sS'prewind'
p554
I3326
sS'resistant'
p555
I994
sS'readers'
p556
I3327
sS'heating'
p557
I611
sS'against'
p558
I1322
sS'layered'
p559
I458
sS'receives'
p560
I2088
sS'faces'
p561
I497
sS'exceeds'
p562
I1720
sS'adapted'
p563
I668
sS'pre'
p564
I1323
sS'covemg'
p565
I2727
sS'exemplary'
p566
I2728
sS'permalloy'
p567
I647
sS'had'
p568
I2775
sS'16a'
p569
I2090
sS'16b'
p570
I2091
sS'height'
p571
I122
sS'represented'
p572
I1324
sS'femn'
p573
I2729
sS'dissipating'
p574
I2553
sS'rearwardly'
p575
I2731
sS'wider'
p576
I612
sS'refill'
p577
I1721
sS'unetched'
p578
I2732
sS'rual'
p579
I1722
sS'strong'
p580
I1495
sS'targeting'
p581
I1723
sS'tolerances'
p582
I1074
sS'basis'
p583
I2093
sS'19a'
p584
I3148
sS'remained'
p585
I2972
sS'three'
p586
I369
sS'been'
p587
I613
sS'.'
p588
I3
sS'transceive'
p589
I2733
sS'much'
p590
I995
sS'detrimental'
p591
I2094
sS'basic'
p592
I1496
sS'expected'
p593
I2734
sS'flexible'
p594
I1325
sS'entered'
p595
I2735
sS'dry'
p596
I1075
sS'life'
p597
I1725
sS'loft'
p598
I2736
sS'mushroom'
p599
I2095
sS'suppress'
p600
I996
sS'longitudinally'
p601
I997
sS'excite'
p602
I2737
sS'stoichiometric'
p603
I2096
sS'lift'
p604
I809
sS'2n2'
p605
I1991
sS'worked'
p606
I2738
sS'spin'
p607
I252
sS'applied'
p608
I334
sS'exception'
p609
I2098
sS'dilute'
p610
I2739
sS'ahead'
p611
I3150
sS'5a'
p612
I2740
sS'subpole'
p613
I2100
sS'thereto'
p614
I1497
sS'n'
p615
I1166
sS'employ'
p616
I1880
sS'near'
p617
I322
sS'formatting'
p618
I2741
sS'applies'
p619
I1498
sS'stopping'
p620
I2102
sS'aid'
p621
I2742
sS'property'
p622
I1326
sS'study'
p623
I2593
sS'procedure'
p624
I2103
sS'CASE:aA'
p625
I3670
sS'atop'
p626
I705
sS'losses'
p627
I2744
sS'reproducibility'
p628
I2745
sS'is'
p629
I10
sS'ir'
p630
I2104
sS'it'
p631
I205
sS'ii'
p632
I1327
sS'need'
p633
I1726
sS'ramifications'
p634
I2025
sS'in'
p635
I11
sS'elevation'
p636
I2123
sS'ic'
p637
I2746
sS'ib'
p638
I2107
sS'id'
p639
I2747
sS'if'
p640
I704
sS'grown'
p641
I1695
sS'containing'
p642
I394
sS'decoupling'
p643
I1328
sS'platen'
p644
I1183
sS'resetting'
p645
I2108
sS'miniature'
p646
I2109
sS'perform'
p647
I2110
sS'realizing'
p648
I2111
sS'wound'
p649
I478
sS'bulges'
p650
I2749
sS'plated'
p651
I313
sS'complex'
p652
I2751
sS'potentially'
p653
I2752
sS'split'
p654
I2509
sS'mixtures'
p655
I2754
sS'avoids'
p656
I1500
sS'dimensionless'
p657
I2755
sS'lithium'
p658
I991
sS'confronting'
p659
I1727
sS'grows'
p660
I2756
sS'crevices'
p661
I2112
sS'independent'
p662
I1262
sS'plating'
p663
I352
sS'nio'
p664
I2113
sS'inadvertently'
p665
I1970
sS'numerical'
p666
I2759
sS'rail'
p667
I998
sS'differing'
p668
I2760
sS'hand'
p669
I1313
sS'insulating'
p670
I62
sS'exerted'
p671
I2730
sS'potentials'
p672
I2762
sS'tune'
p673
I2763
sS'prescribed'
p674
I1728
sS'kept'
p675
I2764
sS'whereby'
p676
I735
sS'beveled'
p677
I2115
sS'contact'
p678
I88
sS'the'
p679
I1
sS'left'
p680
I1078
sS'scissoring'
p681
I2766
sS'unified'
p682
I2767
sS'assembling'
p683
I2768
sS'just'
p684
I2116
sS'appropriately'
p685
I2018
sS'photo'
p686
I1501
sS'rotated'
p687
I2769
sS'starting'
p688
I1729
sS'mid'
p689
I1642
sS'bandwidth'
p690
I2117
sS'farther'
p691
I1072
sS'scattering'
p692
I2118
sS'yet'
p693
I1329
sS'electronically'
p694
I2773
sS'secure'
p695
I2677
sS'adding'
p696
I1730
sS'transformer'
p697
I1503
sS'vibration'
p698
I1731
sS'irradiated'
p699
I1732
sS'ease'
p700
I1504
sS'character'
p701
I2089
sS'elg'
p702
I835
sS'passive'
p703
I1505
sS'greatly'
p704
I2120
sS'unwanted'
p705
I2121
sS'easy'
p706
I353
sS'5e'
p707
I2777
sS'has'
p708
I50
sS'plasma'
p709
I2122
sS'5c'
p710
I2778
sS'5b'
p711
I2779
sS'adopts'
p712
I2780
sS'usable'
p713
I2781
sS'insensitive'
p714
I2106
sS'grounding'
p715
I1506
sS'bands'
p716
I1507
sS'possible'
p717
I539
sS'tmri'
p718
I2782
sS'converged'
p719
I2124
sS'indicative'
p720
I1733
sS'roughness'
p721
I1941
sS'distortion'
p722
I1852
sS'appearing'
p723
I2783
sS'progresses'
p724
I2119
sS'mis'
p725
I2784
sS'apart'
p726
I580
sS'shoulder'
p727
I2231
sS'brought'
p728
I2786
sS'intertwined'
p729
I2126
sS'performing'
p730
I736
sS'diffraction'
p731
I2439
sS'specific'
p732
I926
sS'steps'
p733
I323
sS'arbitrary'
p734
I2127
sS'crossbar'
p735
I1734
sS'fluoride'
p736
I2788
sS'UUUNKKK'
p737
I3675
sS'right'
p738
I1330
sS'reinforcing'
p739
I2789
sS'crown'
p740
I2128
sS'unnecessary'
p741
I2787
sS'flatten'
p742
I2791
sS'altered'
p743
I1508
sS'shapes'
p744
I2792
sS'dense'
p745
I2793
sS'for'
p746
I23
sS'bottom'
p747
I100
sS'electromagnetic'
p748
I778
sS'normal'
p749
I669
sS'/'
p750
I67
sS'nipx'
p751
I2794
sS'track'
p752
I78
sS'periphery'
p753
I2130
sS'indication'
p754
I3335
sS'slurry'
p755
I927
sS'pinched'
p756
I499
sS'core'
p757
I59
sS'hsa'
p758
I928
sS'peel'
p759
I2131
sS'post'
p760
I2882
sS'predicting'
p761
I2796
sS'costs'
p762
I2132
sS'binder'
p763
I1333
sS'substituted'
p764
I1509
sS'yoke'
p765
I123
sS'upward'
p766
I2797
sS'keeper'
p767
I2133
sS'joule'
p768
I1735
sS'manufacturing'
p769
I169
sS'bury'
p770
I2798
sS'properties'
p771
I540
sS'plug'
p772
I1736
sS'planarity'
p773
I1185
sS'attacks'
p774
I2799
sS'counterclockwise'
p775
I2800
sS'o'
p776
I346
sS'constituting'
p777
I1000
sS'ensure'
p778
I1186
sS'permittivity'
p779
I2801
sS'verifiers'
p780
I2802
sS'laminations'
p781
I2803
sS'slightly'
p782
I2134
sS'automatically'
p783
I2804
sS'considerations'
p784
I2805
sS'raised'
p785
I614
sS'thinner'
p786
I1001
sS'bridged'
p787
I1943
sS'presence'
p788
I737
sS'obtaining'
p789
I1529
sS'bound'
p790
I2807
sS'bath'
p791
I1079
sS'down'
p792
I1080
sS'lies'
p793
I1199
sS'finely'
p794
I2808
sS'capped'
p795
I1737
sS'multiturn'
p796
I1510
sS'wrap'
p797
I1334
sS'reducing'
p798
I420
sS'branch'
p799
I2809
sS'rely'
p800
I2810
sS'compression'
p801
I2811
sS'intrinsic'
p802
I2136
sS'support'
p803
I266
sS'flying'
p804
I480
sS'approximate'
p805
I2813
sS'inspected'
p806
I2814
sS'encodeable'
p807
I2815
sS'width'
p808
I76
sS'accordingly'
p809
I810
sS'way'
p810
I1081
sS'was'
p811
I2816
sS'nitride'
p812
I929
sS'head'
p813
I13
sS'therefrom'
p814
I1206
sS'form'
p815
I105
sS'forming'
p816
I79
sS'fore'
p817
I1335
sS'intersector'
p818
I2818
sS'wireless'
p819
I2819
sS'magnetocrystalline'
p820
I1787
sS'heat'
p821
I283
sS'illuminating'
p822
I1511
sS'satisfactorily'
p823
I1336
sS'encoded'
p824
I2821
sS'removed'
p825
I271
sS'photofinisher'
p826
I2139
sS'responding'
p827
I1337
sS'portions'
p828
I130
sS'versions'
p829
I2140
sS'arrays'
p830
I2141
sS'prevents'
p831
I1338
sS'inside'
p832
I670
sS'attached'
p833
I825
sS'maximum'
p834
I1187
sS'devices'
p835
I354
sS'mtj'
p836
I2142
sS'crystal'
p837
I1002
sS'fermi'
p838
I1512
sS'matable'
p839
I2822
sS'originating'
p840
I2143
sS'gravity'
p841
I2770
sS'nifecr'
p842
I1739
sS'inclusive'
p843
I1740
sS'tesla'
p844
I1741
sS'mirror'
p845
I1606
sS'covers'
p846
I1188
sS'floating'
p847
I1804
sS'mrs'
p848
I2981
sS'mold'
p849
I1513
sS'dealer'
p850
I2825
sS'constructed'
p851
I874
sS'nh'
p852
I2758
sS'ni'
p853
I581
sS'upheaval'
p854
I2144
sS'nm'
p855
I931
sS'no'
p856
I517
sS'na'
p857
I2827
sS'nb'
p858
I1282
sS'tiw'
p859
I2828
sS'generally'
p860
I779
sS'ne'
p861
I2829
sS'imparting'
p862
I2830
sS'flood'
p863
I2831
sS'tin'
p864
I1743
sS'setting'
p865
I1552
sS'holding'
p866
I2833
sS'digital'
p867
I1189
sS'test'
p868
I1340
sS'upwardly'
p869
I2834
sS'resistframe'
p870
I2145
sS'ribbons'
p871
I2835
sS'roll'
p872
I1341
sS'tic'
p873
I1190
sS'optically'
p874
I1342
sS'permitting'
p875
I2836
sS'felt'
p876
I2837
sS'directionally'
p877
I1461
sS'transported'
p878
I1945
sS'15a'
p879
I2840
sS'gapping'
p880
I1514
sS'restore'
p881
I3601
sS'atmospheres'
p882
I2785
sS'dissipation'
p883
I1220
sS'discharge'
p884
I866
sS'photoetching'
p885
I2841
sS'magnetoresistive'
p886
I54
sS'omega'
p887
I1343
sS'rectilinear'
p888
I3607
sS'longer'
p889
I1744
sS'statistical'
p890
I2147
sS'pseudo'
p891
I2148
sS'together'
p892
I500
sS'stripping'
p893
I1745
sS'time'
p894
I395
sS'backward'
p895
I1515
sS'asperities'
p896
I1221
sS'precise'
p897
I459
sS'yokes'
p898
I1516
sS'separates'
p899
I1623
sS'activated'
p900
I2150
sS'fabricated'
p901
I284
sS'lubrication'
p902
I1788
sS'leads'
p903
I186
sS'selection'
p904
I2151
sS'skin'
p905
I2152
sS'mill'
p906
I1747
sS'fusing'
p907
I2844
sS'annealed'
p908
I2845
sS'row'
p909
I518
sS'layers'
p910
I45
sS'contributing'
p911
I2846
sS'amplification'
p912
I1344
sS'zone'
p913
I1082
sS'technique'
p914
I1083
sS'micrometers'
p915
I1028
sS'pivotally'
p916
I2848
sS'environment'
p917
I1748
sS'finally'
p918
I1518
sS'compensate'
p919
I2154
sS'permanently'
p920
I2849
sS'stabilizing'
p921
I1749
sS'circumstances'
p922
I2850
sS'protective'
p923
I225
sS'advantage'
p924
I1750
sS'orthogonal'
p925
I975
sS'frequencies'
p926
I1751
sS'widthwise'
p927
I2852
sS'orientations'
p928
I2853
sS'ma'
p929
I2854
sS'little'
p930
I1702
sS'hydroxide'
p931
I3635
sS'drag'
p932
I2155
sS'solves'
p933
I2855
sS'level'
p934
I501
sS'altering'
p935
I2856
sS'turns'
p936
I355
sS'anisotropy'
p937
I437
sS'mb'
p938
I2857
sS'registered'
p939
I3372
sS'miniaturized'
p940
I2156
sS'skewed'
p941
I1752
sS'magnet'
p942
I335
sS'solved'
p943
I2157
sS'lever'
p944
I2158
sS'seedlayer'
p945
I884
sS'sidewall'
p946
I752
sS'definable'
p947
I2858
sS'upper'
p948
I63
sS'work'
p949
I1754
sS'takeup'
p950
I2859
sS'occurrence'
p951
I932
sS'pmr'
p952
I1004
sS'requirements'
p953
I1519
sS'pore'
p954
I2860
sS'sign'
p955
I2861
sS'widened'
p956
I1191
sS'cost'
p957
I1520
sS'worn'
p958
I2862
sS'bake'
p959
I2863
sS'targets'
p960
I2864
sS'niobium'
p961
I2606
sS'appear'
p962
I1876
sS'mt'
p963
I2607
sS'filler'
p964
I2160
sS'performs'
p965
I2865
sS'axes'
p966
I1345
sS'medal'
p967
I3518
sS'oxide'
p968
I248
sS'uniform'
p969
I582
sS'current'
p970
I92
sS'unmounted'
p971
I738
sS'shared'
p972
I1005
sS'boost'
p973
I2867
sS'filled'
p974
I812
sS'supporting'
p975
I1756
sS'transparency'
p976
I2609
sS'depleting'
p977
I2162
sS'perpendicular'
p978
I139
sS'water'
p979
I2163
sS'contemplate'
p980
I1757
sS'magnetism'
p981
I1007
sS'smearing'
p982
I2164
sS'groups'
p983
I616
sS'alone'
p984
I2869
sS'along'
p985
I304
sS'teaches'
p986
I1758
sS'appears'
p987
I2165
sS'change'
p988
I502
sS'precursor'
p989
I2166
sS'shift'
p990
I1759
sS'shoulders'
p991
I2871
sS'thereunder'
p992
I2872
sS'bow'
p993
I2167
sS'depositions'
p994
I2873
sS'accomplished'
p995
I2168
sS'assists'
p996
I2418
sS'domains'
p997
I1192
sS'resonance'
p998
I2875
sS'adjustable'
p999
I2876
sS'useful'
p1000
I1084
sS'inducing'
p1001
I2877
sS'cds2'
p1002
I2878
sS'modifying'
p1003
I2879
sS'filaments'
p1004
I2170
sS'variety'
p1005
I3660
sS'electromagnetically'
p1006
I2880
sS'marker'
p1007
I813
sS'traversing'
p1008
I2881
sS'operational'
p1009
I1760
sS'selectable'
p1010
I2772
sS'opposes'
p1011
I1761
sS'or'
p1012
I46
sS'additive'
p1013
I2883
sS'working'
p1014
I2884
sS'positive'
p1015
I706
sS'cooperates'
p1016
I2172
sS'contoured'
p1017
I1193
sS'variously'
p1018
I1919
sS'connector'
p1019
I2173
sS'msl'
p1020
I1763
sS'opposed'
p1021
I421
sS'memory'
p1022
I814
sS'films'
p1023
I189
sS'micron'
p1024
I1522
sS'thru'
p1025
I2428
sS'lessened'
p1026
I2174
sS'introducing'
p1027
I2887
sS'nonconductive'
p1028
I2888
sS'molecules'
p1029
I3537
sS'conductor'
p1030
I77
sS'outputs'
p1031
I2176
sS'acceptable'
p1032
I2177
sS'tandem'
p1033
I2889
sS'rigid'
p1034
I933
sS'degrade'
p1035
I2557
sS'diffracted'
p1036
I2178
sS'riding'
p1037
I2179
sS'capturing'
p1038
I1764
sS'fly'
p1039
I1765
sS'rotational'
p1040
I2180
sS'tribocharges'
p1041
I1766
sS'dendrite'
p1042
I1865
sS'avoiding'
p1043
I2892
sS'cap'
p1044
I1086
sS'zirconium'
p1045
I2893
sS'values'
p1046
I1087
sS'can'
p1047
I61
sS'following'
p1048
I707
sS'lubricant'
p1049
I438
sS'thicknesses'
p1050
I1523
sS'nearest'
p1051
I2894
sS'dedicated'
p1052
I1346
sS'cohfnb'
p1053
I1767
sS'expanding'
p1054
I2895
sS'chip'
p1055
I541
sS'reciprocate'
p1056
I2896
sS'equilateral'
p1057
I2897
sS'agent'
p1058
I1347
sS'sample'
p1059
I2182
sS'shorting'
p1060
I2183
sS'14b'
p1061
I2184
sS'performed'
p1062
I815
sS'14a'
p1063
I2185
sS'occur'
p1064
I1768
sS'monitoring'
p1065
I479
sS'piled'
p1066
I2898
sS'etches'
p1067
I2186
sS's2'
p1068
I1769
sS'divided'
p1069
I1348
sS'reside'
p1070
I2899
sS'write'
p1071
I44
sS'salts'
p1072
I3176
sS'fourth'
p1073
I780
sS'pins'
p1074
I2901
sS'optimal'
p1075
I2902
sS'allowable'
p1076
I2903
sS'parameter'
p1077
I2904
sS'divides'
p1078
I2905
sS'etched'
p1079
I305
sS'inputs'
p1080
I2187
sS'product'
p1081
I739
sS'crashes'
p1082
I2906
sS'may'
p1083
I94
sS'max'
p1084
I2907
sS'fed'
p1085
I1008
sS'rmax'
p1086
I2908
sS'residues'
p1087
I2909
sS'produce'
p1088
I384
sS'snr'
p1089
I2910
sS'designed'
p1090
I1194
sS'improving'
p1091
I781
sS'such'
p1092
I98
sS'data'
p1093
I120
sS'compatibility'
p1094
I2911
sS'lifting'
p1095
I2912
sS'stress'
p1096
I671
sS'intergranular'
p1097
I2913
sS'natural'
p1098
I2188
sS'coarse'
p1099
I2564
sS'liquid'
p1100
I1195
sS'mgr'
p1101
I1679
sS'sr'
p1102
I2914
sS'circuiting'
p1103
I1502
sS'bloch'
p1104
I2915
sS'switch'
p1105
I708
sS'so'
p1106
I89
sS'deposit'
p1107
I1009
sS'sm'
p1108
I2916
sS'talk'
p1109
I1527
sS'serving'
p1110
I1349
sS'shield'
p1111
I70
sS'constituents'
p1112
I2191
sS'mainly'
p1113
I1196
sS'unacceptable'
p1114
I2192
sS'overlayers'
p1115
I2918
sS'feature'
p1116
I782
sS'stability'
p1117
I709
sS'bead'
p1118
I2919
sS'coercivity'
p1119
I817
sS'nitrogen'
p1120
I1089
sS'pitch'
p1121
I867
sS'solder'
p1122
I2920
sS'still'
p1123
I818
sS'processible'
p1124
I2847
sS'subassembly'
p1125
I2193
sS'blocked'
p1126
I2921
sS'adhesive'
p1127
I1268
sS'limbs'
p1128
I1197
sS'group'
p1129
I396
sS'monitor'
p1130
I868
sS'nimn'
p1131
I2922
sS'apex'
p1132
I1198
sS'reacting'
p1133
I2923
sS'encompasses'
p1134
I2924
sS'vicinity'
p1135
I1010
sS'decreases'
p1136
I710
sS'forms'
p1137
I397
sS'platform'
p1138
I1011
sS'window'
p1139
I934
sS'offers'
p1140
I2925
sS'constitutes'
p1141
I1351
sS'narrowing'
p1142
I2926
sS'suspension'
p1143
I800
sS'main'
p1144
I131
sS'ideal'
p1145
I2776
sS'correspondence'
p1146
I2927
sS'evacuated'
p1147
I1954
sS'non'
p1148
I109
sS'within'
p1149
I239
sS'halt'
p1150
I2929
sS'thereby'
p1151
I181
sS'backgap'
p1152
I2194
sS'rotations'
p1153
I2806
sS'introduce'
p1154
I1530
sS'underneath'
p1155
I2930
sS'records'
p1156
I1774
sS'equidistant'
p1157
I2931
sS'half'
p1158
I672
sS'not'
p1159
I170
sS'now'
p1160
I2195
sS'provision'
p1161
I2932
sS'hall'
p1162
I1775
sS'maintaining'
p1163
I1068
sS'matched'
p1164
I1956
sS'susceptibility'
p1165
I2196
sS'stabilize'
p1166
I2197
sS'rendering'
p1167
I2135
sS'corners'
p1168
I1091
sS'alter'
p1169
I2935
sS'establishing'
p1170
I1531
sS'nonferromagnetic'
p1171
I2198
sS'bursts'
p1172
I2936
sS'instabilities'
p1173
I2937
sS'entirely'
p1174
I2938
sS'seldom'
p1175
I2992
sS'individually'
p1176
I2939
sS'domain'
p1177
I398
sS'square'
p1178
I1200
sS'significantly'
p1179
I869
sS'ed'
p1180
I1776
sS'lieu'
p1181
I3227
sS'nimno'
p1182
I2941
sS'balanced'
p1183
I1201
sS'gaps'
p1184
I627
sS'afaci'
p1185
I2942
sS'wavelength'
p1186
I2200
sS'spiking'
p1187
I2943
sS'ep'
p1188
I2944
sS'intended'
p1189
I1848
sS'shown'
p1190
I1352
sS'accomplish'
p1191
I2201
sS'impurity'
p1192
I2750
sS'space'
p1193
I673
sS'furthermore'
p1194
I1532
sS'interference'
p1195
I1533
sS'cancels'
p1196
I2202
sS'increase'
p1197
I408
sS'contained'
p1198
I2945
sS'dioxide'
p1199
I1534
sS'formula'
p1200
I819
sS'receiving'
p1201
I1353
sS'sensor'
p1202
I51
sS'hco'
p1203
I1535
sS'chemically'
p1204
I1536
sS'lubricating'
p1205
I2946
sS'hydrochlorides'
p1206
I2947
sS'interpose'
p1207
I2948
sS'recede'
p1208
I3624
sS'possibility'
p1209
I2203
sS'movable'
p1210
I1354
sS'inwardly'
p1211
I2204
sS'advantages'
p1212
I1355
sS'vinyl'
p1213
I2017
sS'besides'
p1214
I2950
sS'immiscible'
p1215
I2951
sS'remainder'
p1216
I1202
sS'undershoots'
p1217
I820
sS'card'
p1218
I1777
sS'advance'
p1219
I1537
sS'mos'
p1220
I1373
sS'flare'
p1221
I1141
sS'transition'
p1222
I870
sS'convexly'
p1223
I2953
sS'motion'
p1224
I1356
sS'turn'
p1225
I356
sS'atomically'
p1226
I2205
sS'place'
p1227
I1357
sS'massive'
p1228
I2954
sS'swing'
p1229
I2206
sS'altitude'
p1230
I2812
sS'substrates'
p1231
I1203
sS'first'
p1232
I18
sS'origin'
p1233
I2207
sS'enhancer'
p1234
I2955
sS'xh'
p1235
I2956
sS'initial'
p1236
I2137
sS'compensates'
p1237
I2453
sS'symmetry'
p1238
I2208
sS'enhances'
p1239
I2528
sS'distal'
p1240
I1093
sS'comprised'
p1241
I1173
sS'simplified'
p1242
I2958
sS'specifically'
p1243
I2424
sS'directly'
p1244
I821
sS'comprises'
p1245
I112
sS'array'
p1246
I460
sS'open'
p1247
I1094
sS'angular'
p1248
I1358
sS'affords'
p1249
I2959
sS'size'
p1250
I542
sS'given'
p1251
I936
sS'sheet'
p1252
I937
sS'molded'
p1253
I2960
sS't'
p1254
I568
sS'imposing'
p1255
I2962
sS'returns'
p1256
I2963
sS'constants'
p1257
I2032
sS'structures'
p1258
I300
sS'frame'
p1259
I511
sS'attach'
p1260
I2964
sS'fraction'
p1261
I2965
sS'that'
p1262
I36
sS'floppy'
p1263
I2210
sS'continuous'
p1264
I1013
sS'accurately'
p1265
I822
sS'11b'
p1266
I3418
sS'transverse'
p1267
I503
sS'silane'
p1268
I1538
sS'eliminated'
p1269
I740
sS'photographic'
p1270
I1085
sS'than'
p1271
I68
sS'ceramics'
p1272
I2967
sS'wide'
p1273
I938
sS'analyze'
p1274
I2211
sS'effective'
p1275
I1204
sS'accordance'
p1276
I649
sS'depressed'
p1277
I1780
sS'favors'
p1278
I2968
sS'require'
p1279
I1781
sS'shunting'
p1280
I2212
sS'coats'
p1281
I2969
sS'differently'
p1282
I2970
sS'r'
p1283
I312
sS'coat'
p1284
I2325
sS'noncontacting'
p1285
I3551
sS'and'
p1286
I5
sS'polycrystalline'
p1287
I1783
sS'resistivity'
p1288
I422
sS'ang'
p1289
I1205
sS'mated'
p1290
I2213
sS'eliminating'
p1291
I3001
sS'sal'
p1292
I498
sS'occupies'
p1293
I2973
sS'turned'
p1294
I1360
sS'locations'
p1295
I1539
sS'alley'
p1296
I2974
sS'capacitors'
p1297
I2975
sS'obliquely'
p1298
I2322
sS'winding'
p1299
I242
sS'medium'
p1300
I57
sS'buried'
p1301
I1784
sS'flatness'
p1302
I1207
sS'inhibiting'
p1303
I2214
sS'saw'
p1304
I2215
sS'any'
p1305
I617
sS'conversion'
p1306
I711
sS'efficient'
p1307
I2216
sS'note'
p1308
I2217
sS'equipment'
p1309
I2976
sS'coplanar'
p1310
I1095
sS'potential'
p1311
I2218
sS'take'
p1312
I2219
sS'interior'
p1313
I1361
sS'performance'
p1314
I520
sS'many'
p1315
I2254
sS'switching'
p1316
I777
sS'channel'
p1317
I521
sS'dlc'
p1318
I1097
sS'begin'
p1319
I2977
sS'multiple'
p1320
I461
sS'opposite'
p1321
I213
sS'buffer'
p1322
I1332
sS'enter'
p1323
I2622
sS'phases'
p1324
I2530
sS'falls'
p1325
I1363
sS'abut'
p1326
I2221
sS'importantly'
p1327
I2222
sS'sheets'
p1328
I939
sS'successive'
p1329
I1785
sS'pair'
p1330
I191
sS'photofinishing'
p1331
I2689
sS'CASE:AA'
p1332
I3672
sS'inserted'
p1333
I2978
sS'diffractive'
p1334
I872
sS'especially'
p1335
I1786
sS'irregularity'
p1336
I2979
sS'fills'
p1337
I1339
sS'average'
p1338
I824
sS'later'
p1339
I1364
sS'drive'
p1340
I285
sS'pores'
p1341
I2980
sS'wing'
p1342
I2575
sS'formatted'
p1343
I3530
sS'mri'
p1344
I2982
sS'quiescent'
p1345
I2016
sS'typically'
p1346
I1208
sS'multitrack'
p1347
I2223
sS'quantity'
p1348
I2224
sS'slope'
p1349
I1098
sS'permeable'
p1350
I650
sS'spaced'
p1351
I293
sS'surplus'
p1352
I2984
sS'definite'
p1353
I3009
sS'diffusible'
p1354
I2986
sS'friction'
p1355
I1789
sS'elevate'
p1356
I2987
sS'spacer'
p1357
I229
sS'spaces'
p1358
I1365
sS'shoe'
p1359
I2225
sS'corner'
p1360
I1209
sS'aggressive'
p1361
I2226
sS'injection'
p1362
I2227
sS'fifth'
p1363
I1540
sS'ground'
p1364
I1099
sS'slot'
p1365
I1210
sS'protrusion'
p1366
I783
sS'ratio'
p1367
I481
sS'conduction'
p1368
I741
sS'gull'
p1369
I2228
sS'state'
p1370
I493
sS'texture'
p1371
I2230
sS'relaxes'
p1372
I3378
sS'only'
p1373
I324
sS'stand'
p1374
I3087
sS'implemented'
p1375
I2232
sS'equipped'
p1376
I2988
sS'uppermost'
p1377
I1542
sS'identification'
p1378
I2233
sS'centrally'
p1379
I2234
sS'repositions'
p1380
I2989
sS'contracts'
p1381
I2990
sS'nooks'
p1382
I2272
sS'nearly'
p1383
I1790
sS'conjunction'
p1384
I1791
sS'lamination'
p1385
I1211
sS'crosswise'
p1386
I2235
sS'secondary'
p1387
I1212
sS'closure'
p1388
I357
sS'regarding'
p1389
I2991
sS'aluminum'
p1390
I1014
sS'communicates'
p1391
I1012
sS'median'
p1392
I2993
sS'yield'
p1393
I1101
sS'threading'
p1394
I2994
sS'tension'
p1395
I3451
sS'resins'
p1396
I2995
sS'predicted'
p1397
I2996
sS'finishing'
p1398
I2997
sS'where'
p1399
I253
sS'irradiation'
p1400
I2236
sS'milling'
p1401
I423
sS'burst'
p1402
I2998
sS'physically'
p1403
I1792
sS'twin'
p1404
I3023
sS'comparable'
p1405
I2237
sS'relative'
p1406
I272
sS'degausses'
p1407
I2999
sS'mtt'
p1408
I3000
sS'flatly'
p1409
I2971
sS'contactable'
p1410
I3002
sS'collects'
p1411
I3003
sS'asperity'
p1412
I1102
sS'fidelity'
p1413
I2626
sS'insuring'
p1414
I3004
sS'surfaces'
p1415
I243
sS'detect'
p1416
I1213
sS'reproducibly'
p1417
I3005
sS'inequalities'
p1418
I3006
sS'compounds'
p1419
I3007
sS'multidot'
p1420
I3008
sS'subsequent'
p1421
I784
sS'opening'
p1422
I377
sS'diode'
p1423
I2985
sS'outside'
p1424
I482
sS'radiated'
p1425
I3010
sS'between'
p1426
I41
sS'reproducible'
p1427
I3011
sS'geometric'
p1428
I1793
sS'reading'
p1429
I173
sS'across'
p1430
I286
sS'travels'
p1431
I3012
sS'sendust'
p1432
I2240
sS'vertical'
p1433
I439
sS'suppresses'
p1434
I2241
sS'analyzer'
p1435
I2242
sS'concentrate'
p1436
I2243
sS'multiplies'
p1437
I3013
sS'article'
p1438
I1366
sS'suppressed'
p1439
I1797
sS'pixels'
p1440
I3015
sS'concentrated'
p1441
I2244
sS'reaction'
p1442
I1543
sS'resides'
p1443
I1724
sS'implementing'
p1444
I1922
sS'groove'
p1445
I789
sS'region'
p1446
I74
sS'according'
p1447
I483
sS'enabling'
p1448
I940
sS's'
p1449
I294
sS'CASE:aint'
p1450
I3671
sS'embedding'
p1451
I3019
sS'nearby'
p1452
I1794
sS'among'
p1453
I1544
sS'containment'
p1454
I3020
sS'color'
p1455
I3021
sS'continuation'
p1456
I3022
sS'period'
p1457
I1015
sS'sccm'
p1458
I2247
sS'encapsulated'
p1459
I2248
sS'pole'
p1460
I16
sS'destabilizes'
p1461
I3024
sS'anti'
p1462
I1795
sS'anisotropically'
p1463
I1796
sS'disproportionately'
p1464
I2249
sS'sentinel'
p1465
I2250
sS'associated'
p1466
I618
sS'clearances'
p1467
I3025
sS'fib'
p1468
I983
sS'combines'
p1469
I3026
sS'capable'
p1470
I583
sS'mounting'
p1471
I1023
sS'skew'
p1472
I1215
sS'locally'
p1473
I1367
sS'absence'
p1474
I1545
sS'emitter'
p1475
I1368
sS'attaching'
p1476
I1546
sS'underlayer'
p1477
I742
sS'deposited'
p1478
I84
sS'combined'
p1479
I584
sS'reflective'
p1480
I2251
sS'systems'
p1481
I1016
sS'direction'
p1482
I65
sS'enable'
p1483
I1547
sS'formed'
p1484
I28
sS'wires'
p1485
I2345
sS'external'
p1486
I619
sS'encapsulation'
p1487
I1798
sS'eventually'
p1488
I2712
sS'former'
p1489
I2252
sS'those'
p1490
I873
sS'case'
p1491
I1017
sS'pressurization'
p1492
I1799
sS'stacked'
p1493
I712
sS'configuring'
p1494
I3016
sS'fecody'
p1495
I3028
sS'developing'
p1496
I3029
sS'these'
p1497
I306
sS'cupping'
p1498
I3030
sS'profiles'
p1499
I3031
sS'profiler'
p1500
I2608
sS'multifilm'
p1501
I3032
sS'pertains'
p1502
I3548
sS'hdd'
p1503
I3033
sS'ongoing'
p1504
I3034
sS'mono'
p1505
I2245
sS'tunneling'
p1506
I1800
sS'conformal'
p1507
I1018
sS'interconnected'
p1508
I2255
sS'polymer'
p1509
I1801
sS'planar'
p1510
I257
sS'orientation'
p1511
I462
sS'coupled'
p1512
I167
sS'characteristics'
p1513
I424
sS'undercut'
p1514
I3035
sS'couples'
p1515
I1802
sS'middle'
p1516
I3036
sS'bias'
p1517
I91
sS'punched'
p1518
I3037
sS'cured'
p1519
I1216
sS'ambient'
p1520
I1803
sS'engages'
p1521
I3038
sS'technology'
p1522
I2256
sS'adversely'
p1523
I2824
sS'binary'
p1524
I1805
sS'different'
p1525
I370
sS'develop'
p1526
I3039
sS'etc'
p1527
I2532
sS'media'
p1528
I273
sS'widths'
p1529
I674
sS'wiring'
p1530
I1806
sS'same'
p1531
I150
sS'verifier'
p1532
I2257
sS'thinning'
p1533
I1549
sS'pad'
p1534
I274
sS'stepped'
p1535
I1103
sS'physical'
p1536
I615
sS'contouring'
p1537
I3040
sS'breakdown'
p1538
I3041
sS'vrms'
p1539
I2826
sS'finish'
p1540
I1311
sS'closest'
p1541
I1807
sS'assist'
p1542
I1808
sS'driver'
p1543
I564
sS'drives'
p1544
I1019
sS'driven'
p1545
I1809
sS'riii'
p1546
I3044
sS'excavated'
p1547
I3045
sS'edges'
p1548
I314
sS'conductors'
p1549
I620
sS'footprint'
p1550
I2258
sS'changing'
p1551
I1369
sS'manufacturability'
p1552
I2259
sS'implements'
p1553
I3047
sS'miscible'
p1554
I2634
sS'supports'
p1555
I925
sS'modes'
p1556
I3048
sS'largely'
p1557
I3049
sS'minimize'
p1558
I941
sS'motions'
p1559
I3550
sS'restrain'
p1560
I3576
sS'amounts'
p1561
I3385
sS'without'
p1562
I336
sS'components'
p1563
I425
sS'communications'
p1564
I1550
sS'coordinate'
p1565
I3051
sS'termination'
p1566
I2261
sS'accessible'
p1567
I3363
sS'dimension'
p1568
I558
sS'bodies'
p1569
I3052
sS'charged'
p1570
I3053
sS'exceeding'
p1571
I1915
sS'being'
p1572
I118
sS'tip'
p1573
I86
sS'ci'
p1574
I2533
sS'risking'
p1575
I3054
sS'amplifies'
p1576
I2264
sS'aspect'
p1577
I1182
sS'touch'
p1578
I3055
sS'polish'
p1579
I1811
sS'electrolyte'
p1580
I409
sS'speed'
p1581
I875
sS'guides'
p1582
I713
sS'halfway'
p1583
I1812
sS'overlapped'
p1584
I1370
sS'soluble'
p1585
I3409
sS'grounded'
p1586
I1521
sS'except'
p1587
I1371
sS'improvement'
p1588
I1104
sS'vpdy'
p1589
I3057
sS'porosity'
p1590
I2832
sS'treatment'
p1591
I1218
sS'fluxguide'
p1592
I3058
sS'transducing'
p1593
I359
sS'extensive'
p1594
I3060
sS'nico'
p1595
I3386
sS'coptcr'
p1596
I3061
sS'aspects'
p1597
I3062
sS'around'
p1598
I371
sS'read'
p1599
I52
sS'outermost'
p1600
I1602
sS'magnetoresistively'
p1601
I3063
sS'electrolytes'
p1602
I1905
sS'predetermined'
p1603
I254
sS'vacuum'
p1604
I1020
sS'confined'
p1605
I1553
sS'using'
p1606
I155
sS'breakage'
p1607
I3065
sS'amr'
p1608
I2265
sS'moreover'
p1609
I2842
sS'rear'
p1610
I220
sS'vertically'
p1611
I1021
sS'micromagnetic'
p1612
I1105
sS'particle'
p1613
I675
sS'identifying'
p1614
I2266
sS'aqueous'
p1615
I3067
sS'reduces'
p1616
I463
sS'conducts'
p1617
I1219
sS'maintained'
p1618
I1331
sS'serves'
p1619
I942
sS'facing'
p1620
I209
sS'chamber'
p1621
I2267
sS'sic'
p1622
I1814
sS'either'
p1623
I464
sS'output'
p1624
I235
sS'downward'
p1625
I1374
sS'inter'
p1626
I1106
sS'differentially'
p1627
I3068
sS'reduced'
p1628
I301
sS'shortcircuiting'
p1629
I3069
sS'node'
p1630
I876
sS'seating'
p1631
I2268
sS'sulfates'
p1632
I3070
sS'interconnects'
p1633
I3071
sS'exposed'
p1634
I360
sS'existing'
p1635
I1554
sS'equates'
p1636
I3072
sS'cathode'
p1637
I826
sS'imaged'
p1638
I2269
sS'exposes'
p1639
I1815
sS'cancel'
p1640
I2270
sS'erase'
p1641
I1022
sS'yttrium'
p1642
I3350
sS'cr'
p1643
I743
sS'images'
p1644
I3073
sS'ulcp'
p1645
I1555
sS'intact'
p1646
I1816
sS'matching'
p1647
I1817
sS'users'
p1648
I2271
sS'mesa'
p1649
I1556
sS'provided'
p1650
I69
sS'dimensions'
p1651
I1375
sS'cavity'
p1652
I543
sS'ability'
p1653
I3074
sS'recorded'
p1654
I465
sS'critical'
p1655
I1107
sS'bridges'
p1656
I2273
sS'provides'
p1657
I214
sS'deteriorated'
p1658
I2340
sS'restoring'
p1659
I3075
sS'measuring'
p1660
I559
sS'biased'
p1661
I744
sS'accessing'
p1662
I3076
sS'assembly'
p1663
I106
sS'power'
p1664
I1108
sS'intimate'
p1665
I1818
sS'manufactured'
p1666
I877
sS'equivalent'
p1667
I3078
sS'inspect'
p1668
I3079
sS'broken'
p1669
I3080
sS'meets'
p1670
I2757
sS'incline'
p1671
I3081
sS'midlayer'
p1672
I2400
sS'ratios'
p1673
I3083
sS'inherent'
p1674
I3206
sS'exciting'
p1675
I2275
sS'manufacturer'
p1676
I1819
sS'on'
p1677
I20
sS'conducting'
p1678
I440
sS'central'
p1679
I280
sS'ferromagnetic'
p1680
I82
sS'aromatic'
p1681
I2276
sS'of'
p1682
I4
sS'oe'
p1683
I1820
sS'protrudes'
p1684
I2534
sS'generated'
p1685
I410
sS'mutually'
p1686
I1821
sS'15b'
p1687
I3086
sS'characterized'
p1688
I1393
sS'electroconductive'
p1689
I3453
sS'ow'
p1690
I3088
sS'mean'
p1691
I3089
sS'processor'
p1692
I1290
sS'heater'
p1693
I676
sS'curling'
p1694
I3090
sS'interfacing'
p1695
I2277
sS'implantation'
p1696
I3091
sS'communication'
p1697
I1437
sS'image'
p1698
I484
sS'actuate'
p1699
I3093
sS'readgap'
p1700
I1024
sS'variable'
p1701
I648
sS'rising'
p1702
I3094
sS'inverting'
p1703
I2278
sS'determine'
p1704
I943
sS'strip'
p1705
I504
sS'accumulated'
p1706
I1822
sS'shortening'
p1707
I2326
sS'energization'
p1708
I2343
sS'grater'
p1709
I3097
sS'area'
p1710
I223
sS'removing'
p1711
I585
sS'strictly'
p1712
I3098
sS'there'
p1713
I944
sS'hazards'
p1714
I3099
sS'sloped'
p1715
I1145
sS'start'
p1716
I3100
sS'compliant'
p1717
I1025
sS'cosine'
p1718
I3101
sS'low'
p1719
I179
sS'sealed'
p1720
I1559
sS'nitric'
p1721
I3102
sS'actuator'
p1722
I2279
sS'energy'
p1723
I441
sS'assumes'
p1724
I3103
sS'bettering'
p1725
I3104
sS'complete'
p1726
I1560
sS'enough'
p1727
I2280
sS'reduce'
p1728
I488
sS'irradiating'
p1729
I945
sS'studless'
p1730
I1376
sS'responds'
p1731
I2281
sS'elimination'
p1732
I1047
sS'impedance'
p1733
I1274
sS'pitched'
p1734
I2283
sS'promote'
p1735
I1823
sS'with'
p1736
I22
sS'nitrides'
p1737
I3322
sS'faster'
p1738
I3106
sS'magnetoresistor'
p1739
I1455
sS'applying'
p1740
I691
sS'embedded'
p1741
I827
sS'extensiveness'
p1742
I2284
sS'fabricate'
p1743
I3107
sS'attenuate'
p1744
I3108
sS'relaxed'
p1745
I2285
sS'solvents'
p1746
I3109
sS'13b'
p1747
I3584
sS'isolating'
p1748
I1968
sS'connect'
p1749
I2346
sS'strongly'
p1750
I3110
sS'smoothing'
p1751
I1670
sS'ac'
p1752
I1562
sS'leaked'
p1753
I2286
sS'ag'
p1754
I2287
sS'af'
p1755
I3111
sS'certain'
p1756
I1563
sS'equipotential'
p1757
I1825
sS'moved'
p1758
I3112
sS'al'
p1759
I385
sS'etchant'
p1760
I692
sS'resultant'
p1761
I1148
sS'ap'
p1762
I745
sS'as'
p1763
I43
sS'reliability'
p1764
I946
sS'13a'
p1765
I3469
sS'at'
p1766
I35
sS'file'
p1767
I714
sS'areally'
p1768
I3115
sS'corresponding'
p1769
I557
sS'pedestal'
p1770
I364
sS'moves'
p1771
I1564
sS'film'
p1772
I14
sS'fill'
p1773
I1378
sS'again'
p1774
I2289
sS'antenna'
p1775
I2290
sS'owing'
p1776
I2199
sS'storage'
p1777
I165
sS'departs'
p1778
I1565
sS'elemental'
p1779
I1826
sS'rubber'
p1780
I3116
sS'field'
p1781
I83
sS'prism'
p1782
I2291
sS'terminating'
p1783
I2292
sS'spatial'
p1784
I1827
sS'interrupts'
p1785
I3577
sS'immunity'
p1786
I3117
sS'deviation'
p1787
I3118
sS'ru'
p1788
I1065
sS'shiftable'
p1789
I3628
sS'sandwiching'
p1790
I1566
sS'includes'
p1791
I49
sS'flattened'
p1792
I1027
sS'peak'
p1793
I878
sS'suited'
p1794
I1828
sS'hwy'
p1795
I3119
sS'included'
p1796
I621
sS'building'
p1797
I3120
sS'remote'
p1798
I1109
sS'controlled'
p1799
I854
sS'permeance'
p1800
I3214
sS'mask'
p1801
I166
sS'controller'
p1802
I1829
sS'deflection'
p1803
I2790
sS'stacks'
p1804
I1746
sS'gradient'
p1805
I2048
sS'inhibited'
p1806
I2293
sS'mass'
p1807
I1380
sS'initiating'
p1808
I1830
sS'sawing'
p1809
I879
sS'cpp'
p1810
I716
sS'cores'
p1811
I522
sS'evenly'
p1812
I3121
sS'resolution'
p1813
I1222
sS'original'
p1814
I3122
sS'alo'
p1815
I3123
sS'all'
p1816
I523
sS'surrounded'
p1817
I1831
sS'lapped'
p1818
I717
sS'angles'
p1819
I1832
sS'caused'
p1820
I746
sS'ceramic'
p1821
I386
sS'angstroms'
p1822
I880
sS'alloys'
p1823
I2294
sS'levelling'
p1824
I3124
sS'disc'
p1825
I947
sS'looper'
p1826
I3125
sS'1p2'
p1827
I2295
sS'follow'
p1828
I3126
sS'disk'
p1829
I80
sS'ptr'
p1830
I2296
sS'causes'
p1831
I1381
sS'synthetic'
p1832
I1833
sS'content'
p1833
I986
sS'etching'
p1834
I149
sS're'
p1835
I2297
sS'tw'
p1836
I2298
sS'subjected'
p1837
I1567
sS'overlying'
p1838
I747
sS'insulate'
p1839
I1350
sS'extraneous'
p1840
I1834
sS'removal'
p1841
I785
sS'diluting'
p1842
I3128
sS'to'
p1843
I9
sS'tail'
p1844
I1568
sS'th'
p1845
I3129
sS'ti'
p1846
I1382
sS'nodes'
p1847
I2300
sS'tb'
p1848
I2301
sS'dynes'
p1849
I3254
sS'ta'
p1850
I1383
sS'transducers'
p1851
I560
sS'virtue'
p1852
I2890
sS'very'
p1853
I622
sS'protrusions'
p1854
I3643
sS'floated'
p1855
I1481
sS'results'
p1856
I828
sS'oxides'
p1857
I1835
sS'bubbles'
p1858
I3130
sS'difference'
p1859
I1172
sS'capillary'
p1860
I3132
sS'pt2'
p1861
I1570
sS'pt1'
p1862
I1310
sS'cocr'
p1863
I3027
sS'treating'
p1864
I3134
sS'switches'
p1865
I2303
sS'roundershoots'
p1866
I3135
sS'pumpdown'
p1867
I2870
sS'accompanying'
p1868
I2304
sS'forth'
p1869
I3136
sS'joined'
p1870
I524
sS'resistor'
p1871
I748
sS'trench'
p1872
I216
sS'jointed'
p1873
I1571
sS'small'
p1874
I375
sS'gb'
p1875
I2305
sS'abutting'
p1876
I1572
sS'employing'
p1877
I1384
sS'neighborhood'
p1878
I2306
sS'portable'
p1879
I3137
sS'fringing'
p1880
I806
sS'skiing'
p1881
I2307
sS'supression'
p1882
I2308
sS'past'
p1883
I1573
sS'zero'
p1884
I561
sS'invention'
p1885
I104
sS'design'
p1886
I562
sS'directionality'
p1887
I3140
sS'pass'
p1888
I1385
sS'link'
p1889
I2983
sS'further'
p1890
I174
sS'functioning'
p1891
I1837
sS'outputted'
p1892
I3552
sS'situated'
p1893
I525
sS'harden'
p1894
I3141
sS'what'
p1895
I3142
sS'gl'
p1896
I3398
sS'magnetostatically'
p1897
I1838
sS'sub'
p1898
I107
sS'nano'
p1899
I749
sS'section'
p1900
I215
sS'thickness'
p1901
I110
sS'abs'
p1902
I338
sS'sup'
p1903
I651
sS'whirled'
p1904
I3144
sS'abraded'
p1905
I2309
sS'recharge'
p1906
I3145
sS'method'
p1907
I58
sS'contrast'
p1908
I2310
sS'movement'
p1909
I750
sS'dielectrically'
p1910
I3400
sS'full'
p1911
I1224
sS'ranged'
p1912
I3146
sS'loose'
p1913
I1574
sS'component'
p1914
I426
sS'ranges'
p1915
I1225
sS'tracks'
p1916
I442
sS'selective'
p1917
I882
sS'operating'
p1918
I948
sS'capacitor'
p1919
I1575
sS'excess'
p1920
I3147
sS'directions'
p1921
I623
sS'divalent'
p1922
I2312
sS'coupling'
p1923
I230
sS'table'
p1924
I1694
sS'19b'
p1925
I3149
sS'interposed'
p1926
I466
sS'leveling'
p1927
I2099
sS'demagnetizing'
p1928
I3151
sS'margin'
p1929
I3152
sS'compliance'
p1930
I1839
sS'allows'
p1931
I325
sS'reason'
p1932
I3153
sS'experience'
p1933
I2313
sS'prior'
p1934
I949
sS'amount'
p1935
I526
sS'periodic'
p1936
I2314
sS'stiffness'
p1937
I3154
sS'action'
p1938
I1386
sS'narrow'
p1939
I527
sS'helps'
p1940
I1924
sS'elongated'
p1941
I443
sS'photoimageable'
p1942
I3155
sS'via'
p1943
I326
sS'followed'
p1944
I586
sS'exhibit'
p1945
I2510
sS'requiring'
p1946
I1387
sS'tracking'
p1947
I2324
sS'maximized'
p1948
I3480
sS'glitch'
p1949
I3156
sS'inorganic'
p1950
I786
sS'coatings'
p1951
I3157
sS'passage'
p1952
I3158
sS'establish'
p1953
I1840
sS'detecting'
p1954
I528
sS'select'
p1955
I3159
sS'readily'
p1956
I2315
sS'conventional'
p1957
I485
sS'takes'
p1958
I2316
sS'uniformity'
p1959
I1110
sS'contains'
p1960
I950
sS'two'
p1961
I93
sS'damaged'
p1962
I1577
sS'piggyback'
p1963
I2317
sS'alleviate'
p1964
I1388
sS'aperture'
p1965
I677
sS'promoting'
p1966
I3160
sS'minor'
p1967
I3161
sS'more'
p1968
I171
sS'flat'
p1969
I486
sS'diamond'
p1970
I1029
sS'erode'
p1971
I2318
sS'initiated'
p1972
I2319
sS'substances'
p1973
I2320
sS'immersion'
p1974
I3162
sS'coating'
p1975
I281
sS'emission'
p1976
I3163
sS'micrometer'
p1977
I1841
sS'tested'
p1978
I3164
sS'controlling'
p1979
I1578
sS'particular'
p1980
I1842
sS'known'
p1981
I829
sS'retained'
p1982
I3224
sS'mounted'
p1983
I487
sS'producing'
p1984
I505
sS'keeping'
p1985
I3166
sS'strain'
p1986
I3167
sS'shielded'
p1987
I1030
sS'fast'
p1988
I3168
sS'intercepted'
p1989
I3169
sS'remain'
p1990
I1389
sS'pressing'
p1991
I3170
sS'nine'
p1992
I3171
sS'electrodeposition'
p1993
I1111
sS'v'
p1994
I652
sS'magnetoresistant'
p1995
I1390
sS'spontaneous'
p1996
I3172
sS'ions'
p1997
I787
sS'stacking'
p1998
I1843
sS'capping'
p1999
I1844
sS'share'
p2000
I2321
sS'pushed'
p2001
I2209
sS'minimum'
p2002
I1112
sS'protects'
p2003
I1226
sS'sense'
p2004
I255
sS'sharp'
p2005
I1845
sS'deflectable'
p2006
I3175
sS'bonded'
p2007
I1088
sS'axis'
p2008
I276
sS'information'
p2009
I236
sS'respective'
p2010
I678
sS'degaussing'
p2011
I3439
sS'rather'
p2012
I1579
sS'antiparallel'
p2013
I816
sS'acts'
p2014
I2323
sS'lithographic'
p2015
I1846
sS'utilize'
p2016
I1847
sS'transfers'
p2017
I3178
sS'repositioned'
p2018
I3179
sS'enclose'
p2019
I2526
sS'sandwich'
p2020
I1227
sS'circuit'
p2021
I133
sS'derived'
p2022
I1849
sS'plane'
p2023
I141
sS'fe'
p2024
I288
sS'horizontal'
p2025
I1113
sS'wave'
p2026
I3180
sS'response'
p2027
I719
sS'a'
p2028
I2
sS'short'
p2029
I529
sS'thereacross'
p2030
I3579
sS'laminate'
p2031
I823
sS'merged'
p2032
I1850
sS'thereat'
p2033
I2866
sS'unidirectionally'
p2034
I3181
sS'promotes'
p2035
I3182
sS'specifying'
p2036
I2327
sS'deterioration'
p2037
I1851
sS'saccharin'
p2038
I3183
sS'retrieval'
p2039
I3184
sS'flanges'
p2040
I3185
sS'reservoir'
p2041
I1580
sS'developed'
p2042
I1391
sS'oblique'
p2043
I2328
sS'nondimensional'
p2044
I3186
sS'cross'
p2045
I339
sS'held'
p2046
I2329
sS'thermal'
p2047
I387
sS'industrial'
p2048
I3187
sS'through'
p2049
I108
sS'chiplet'
p2050
I3188
sS'concentric'
p2051
I2330
sS'suffer'
p2052
I3189
sS'its'
p2053
I185
sS'register'
p2054
I2331
sS'discloses'
p2055
I3190
sS'rapidly'
p2056
I3191
sS'general'
p2057
I3113
sS'sodium'
p2058
I2332
sS'inward'
p2059
I3192
sS'lateral'
p2060
I587
sS'reluctance'
p2061
I1114
sS'actually'
p2062
I2333
sS'detected'
p2063
I1115
sS'disclosed'
p2064
I146
sS'radical'
p2065
I3231
sS'travelling'
p2066
I2334
sS'might'
p2067
I3194
sS'deformation'
p2068
I2253
sS'good'
p2069
I1853
sS'return'
p2070
I563
sS'yo'
p2071
I2335
sS'frond'
p2072
I3196
sS'rails'
p2073
I955
sS'number'
p2074
I467
sS'inch'
p2075
I2540
sS'walls'
p2076
I951
sS'wise'
p2077
I2568
sS'permissible'
p2078
I2263
sS'compound'
p2079
I1031
sS'foot'
p2080
I3198
sS'buffering'
p2081
I3199
sS'smoothness'
p2082
I3200
sS'instructions'
p2083
I3201
sS'2t'
p2084
I3202
sS'easily'
p2085
I1116
sS'fully'
p2086
I1581
sS'assemblies'
p2087
I831
sS'presented'
p2088
I2338
sS'capability'
p2089
I2339
sS'micro'
p2090
I1854
sS'dishing'
p2091
I3203
sS'stopped'
p2092
I2274
sS'2a'
p2093
I2341
sS'2b'
p2094
I3204
sS'radial'
p2095
I3205
sS'accommodated'
p2096
I3084
sS'repeating'
p2097
I3207
sS'energetically'
p2098
I3208
sS'chipping'
p2099
I1077
sS'embraced'
p2100
I3210
sS'clamp'
p2101
I3211
sS'tilted'
p2102
I2342
sS'circumferential'
p2103
I1476
sS'weight'
p2104
I530
sS'visually'
p2105
I3042
sS'generation'
p2106
I1394
sS'polyimide'
p2107
I1855
sS'contiguous'
p2108
I1032
sS'hard'
p2109
I116
sS'positioned'
p2110
I190
sS'hexaferrite'
p2111
I3212
sS'magnetoresistance'
p2112
I192
sS'obtains'
p2113
I1824
sS'measurement'
p2114
I1856
sS'scratching'
p2115
I2347
sS'operation'
p2116
I262
sS'beyond'
p2117
I788
sS'scribe'
p2118
I1395
sS'event'
p2119
I3213
sS'leave'
p2120
I1857
sS'p'
p2121
I2344
sS'since'
p2122
I427
sS'induces'
p2123
I2348
sS'projected'
p2124
I1858
sS'denotes'
p2125
I2349
sS'acting'
p2126
I1859
sS'flattening'
p2127
I1582
sS'flowed'
p2128
I2350
sS'induced'
p2129
I883
sS'occurs'
p2130
I1583
sS'heights'
p2131
I2351
sS'scissor'
p2132
I3215
sS'solvent'
p2133
I1860
sS'inert'
p2134
I952
sS'protruding'
p2135
I953
sS'koh'
p2136
I3216
sS'favored'
p2137
I3217
sS'structurally'
p2138
I3043
sS'nonplanar'
p2139
I3218
sS'lesser'
p2140
I2101
sS'extraordinary'
p2141
I3220
sS'terminals'
p2142
I1117
sS'base'
p2143
I237
sS'imaging'
p2144
I1584
sS'members'
p2145
I361
sS'acute'
p2146
I2412
sS'bidirectional'
p2147
I3221
sS'approach'
p2148
I2082
sS'riser'
p2149
I3222
sS'facilitating'
p2150
I3223
sS'beginning'
p2151
I1861
sS'generate'
p2152
I751
sS'definition'
p2153
I1396
sS'pairs'
p2154
I1862
sS'benefits'
p2155
I3165
sS'sulfate'
p2156
I3127
sS'leveler'
p2157
I3225
sS'perceptible'
p2158
I3226
sS'conformally'
p2159
I3173
sS'positioning'
p2160
I720
sS'accumulation'
p2161
I1753
sS'conducted'
p2162
I2353
sS'w'
p2163
I319
sS'twenty'
p2164
I2358
sS'consequence'
p2165
I2354
sS'barber'
p2166
I3228
sS'undergo'
p2167
I3229
sS'copper'
p2168
I546
sS'major'
p2169
I1863
sS'engagement'
p2170
I2660
sS'utilizes'
p2171
I2356
sS'probability'
p2172
I3230
sS'prevent'
p2173
I489
sS'operatively'
p2174
I3193
sS'thereafter'
p2175
I1397
sS'reflected'
p2176
I830
sS'linking'
p2177
I3232
sS'feet'
p2178
I1864
sS'utilized'
p2179
I1118
sS'smaller'
p2180
I509
sS'done'
p2181
I1119
sS'defects'
p2182
I864
sS'fluxes'
p2183
I1398
sS'passes'
p2184
I954
sS'horse'
p2185
I2357
sS'"'
p2186
I263
sS'heads'
p2187
I172
sS'temperature'
p2188
I547
sS'jet'
p2189
I3233
sS'utilization'
p2190
I2352
sS'leading'
p2191
I307
sS'ultrathin'
p2192
I2359
sS'eddy'
p2193
I2360
sS'least'
p2194
I73
sS'pinned'
p2195
I184
sS'overlaying'
p2196
I1867
sS'paramagnetic'
p2197
I3234
sS'identity'
p2198
I3591
sS'passed'
p2199
I1399
sS'scheme'
p2200
I2057
sS'digitized'
p2201
I3349
sS'shifted'
p2202
I2361
sS'insure'
p2203
I3593
sS'tfh'
p2204
I347
sS'relationship'
p2205
I721
sS'pump'
p2206
I1869
sS'poletips'
p2207
I956
sS'anodized'
p2208
I3237
sS'bleed'
p2209
I3486
sS'sublayer'
p2210
I790
sS'grooved'
p2211
I2452
sS'persulfate'
p2212
I3239
sS'alumina'
p2213
I295
sS'part'
p2214
I121
sS'favorable'
p2215
I3240
sS'focusing'
p2216
I2362
sS'microdevices'
p2217
I3241
sS'diffusion'
p2218
I2363
sS'b'
p2219
I833
sS'determines'
p2220
I1585
sS'double'
p2221
I1229
sS'counterbalancing'
p2222
I1870
sS'instruction'
p2223
I3242
sS'aims'
p2224
I3243
sS'recording'
p2225
I30
sS'planarization'
p2226
I962
sS'determined'
p2227
I1230
sS'polarizer'
p2228
I3244
sS'vias'
p2229
I490
sS'polishing'
p2230
I628
sS'toward'
p2231
I412
sS'treated'
p2232
I1239
sS'overcast'
p2233
I3616
sS'7b'
p2234
I1871
sS'7a'
p2235
I1872
sS'strengthen'
p2236
I3247
sS'randomly'
p2237
I1873
sS'substantial'
p2238
I565
sS'graphite'
p2239
I3650
sS'hexagonal'
p2240
I965
sS'lie'
p2241
I1232
sS'sandwiched'
p2242
I413
sS'built'
p2243
I966
sS'depending'
p2244
I1874
sS'self'
p2245
I506
sS'trapped'
p2246
I2073
sS'conforming'
p2247
I2367
sS'laterally'
p2248
I765
sS'lifts'
p2249
I1875
sS'lip'
p2250
I3250
sS'build'
p2251
I1121
sS'flexure'
p2252
I624
sS'stoichiometry'
p2253
I2368
sS'cofe'
p2254
I1586
sS'hga'
p2255
I625
sS'added'
p2256
I892
sS'electric'
p2257
I679
sS'insulative'
p2258
I548
sS'serve'
p2259
I1587
sS'measures'
p2260
I2369
sS'most'
p2261
I1233
sS'experiences'
p2262
I3251
sS'rho'
p2263
I957
sS'bicmos'
p2264
I2370
sS'measured'
p2265
I834
sS'constitution'
p2266
I2159
sS'patterned'
p2267
I196
sS'wetting'
p2268
I3560
sS'tpc'
p2269
I2371
sS'windows'
p2270
I1877
sS'saturate'
p2271
I2372
sS'cover'
p2272
I549
sS'carbides'
p2273
I3252
sS'traditional'
p2274
I3253
sS'optical'
p2275
I832
sS'electrons'
p2276
I1003
sS'workpiece'
p2277
I1699
sS'azimuth'
p2278
I1401
sS'velocity'
p2279
I1402
sS'intercepting'
p2280
I1878
sS'notch'
p2281
I959
sS'attacking'
p2282
I3255
sS'lying'
p2283
I1588
sS'sector'
p2284
I3256
sS'particularly'
p2285
I1589
sS'gold'
p2286
I960
sS'disturbances'
p2287
I3257
sS'scattered'
p2288
I3258
sS'lengthwise'
p2289
I3259
sS'evaporation'
p2290
I1879
sS'inflexible'
p2291
I3260
sS'minimizing'
p2292
I1590
sS'relation'
p2293
I885
sS'excessive'
p2294
I3602
sS'fine'
p2295
I1591
sS'piezoelectric'
p2296
I1403
sS'cell'
p2297
I1881
sS'giant'
p2298
I552
sS'parameters'
p2299
I2374
sS'e11'
p2300
I3262
sS'capacitive'
p2301
I3263
sS'writes'
p2302
I1882
sS'writer'
p2303
I657
sS'calibrated'
p2304
I3323
sS'factor'
p2305
I1883
sS'windings'
p2306
I468
sS'accurate'
p2307
I1657
sS'columns'
p2308
I1406
sS'triangle'
p2309
I3264
sS'dependent'
p2310
I2375
sS'beams'
p2311
I1235
sS'connections'
p2312
I2376
sS'imparted'
p2313
I3265
sS'polarized'
p2314
I1372
sS'poletip'
p2315
I1884
sS'adhered'
p2316
I2485
sS'during'
p2317
I151
sS'3a'
p2318
I2377
sS'submicron'
p2319
I886
sS'exhibiting'
p2320
I1236
sS'continuum'
p2321
I3268
sS'dsmr'
p2322
I1407
sS'colinearity'
p2323
I2669
sS'adhering'
p2324
I3269
sS'remove'
p2325
I722
sS'underlying'
p2326
I694
sS'common'
p2327
I550
sS'activity'
p2328
I2378
sS'x'
p2329
I308
sS'creates'
p2330
I2379
sS'locating'
p2331
I3270
sS'scanning'
p2332
I3271
sS'bars'
p2333
I836
sS'set'
p2334
I626
sS'art'
p2335
I1122
sS'laminating'
p2336
I1217
sS'achieved'
p2337
I837
sS'enabled'
p2338
I3273
sS'passivation'
p2339
I1592
sS'outboard'
p2340
I3274
sS'trilayer'
p2341
I1885
sS'achieves'
p2342
I1593
sS'barc'
p2343
I2380
sS'individual'
p2344
I1034
sS'sec'
p2345
I2262
sS'are'
p2346
I29
sS'outwardly'
p2347
I3275
sS'close'
p2348
I887
sS'materially'
p2349
I3276
sS'arm'
p2350
I905
sS'analog'
p2351
I1886
sS'interfacial'
p2352
I3277
sS'project'
p2353
I2381
sS'practice'
p2354
I2382
sS'meandering'
p2355
I2383
sS'deactivate'
p2356
I3278
sS'user'
p2357
I3317
sS'leg'
p2358
I847
sS'diluted'
p2359
I3279
sS'dipole'
p2360
I3280
sS'halves'
p2361
I1237
sS'various'
p2362
I680
sS'epitaxial'
p2363
I3281
sS'actuation'
p2364
I1594
sS'hold'
p2365
I1887
sS'conditions'
p2366
I1888
sS'knowing'
p2367
I2138
sS'creating'
p2368
I1238
sS'complementary'
p2369
I2384
sS'initially'
p2370
I1889
sS'interfaces'
p2371
I2385
sS'sole'
p2372
I3283
sS'craters'
p2373
I1408
sS'sintering'
p2374
I3245
sS'selectively'
p2375
I588
sS'interface'
p2376
I507
sS'alters'
p2377
I3284
sS'both'
p2378
I163
sS'c'
p2379
I753
sS'improved'
p2380
I182
sS'reverse'
p2381
I1409
sS'afai'
p2382
I3285
sS'planarizing'
p2383
I1595
sS'orienting'
p2384
I2364
sS'tapered'
p2385
I1123
sS'foreign'
p2386
I1891
sS'sensitive'
p2387
I681
sS'embodiments'
p2388
I362
sS'improves'
p2389
I963
sS'collect'
p2390
I3287
sS'whole'
p2391
I3288
sS'undershoot'
p2392
I1240
sS'load'
p2393
I889
sS'orientable'
p2394
I3289
sS'flies'
p2395
I3290
sS'pancake'
p2396
I3291
sS'point'
p2397
I472
sS'battery'
p2398
I930
sS'others'
p2399
I2386
sS'corresponds'
p2400
I1662
sS'dimensional'
p2401
I1596
sS'fashion'
p2402
I3292
sS'adjoining'
p2403
I1576
sS'doping'
p2404
I3294
sS'slots'
p2405
I2387
sS'throughout'
p2406
I2388
sS'suppressing'
p2407
I2389
sS'dissipated'
p2408
I2390
sS'platinum'
p2409
I3295
sS'rotatable'
p2410
I2391
sS'ensures'
p2411
I1894
sS'described'
p2412
I508
sS'pt'
p2413
I2392
sS'lattice'
p2414
I2546
sS'dams'
p2415
I1035
sS'create'
p2416
I3296
sS'due'
p2417
I289
sS'reduction'
p2418
I629
sS'pa'
p2419
I2393
sS'silylation'
p2420
I1895
sS'supplying'
p2421
I899
sS'pd'
p2422
I2394
sS'anisotropic'
p2423
I791
sS'ph'
p2424
I1896
sS'meeting'
p2425
I3297
sS'rotatably'
p2426
I2395
sS'spirals'
p2427
I3606
sS'files'
p2428
I2396
sS'generating'
p2429
I682
sS'partly'
p2430
I1241
sS'torque'
p2431
I3298
sS'transferring'
p2432
I3299
sS'gas'
p2433
I1410
sS'precision'
p2434
I979
sS'gap'
p2435
I33
sS'adaptable'
p2436
I3300
sS'determination'
p2437
I3301
sS'representative'
p2438
I2398
sS'hardness'
p2439
I1598
sS'p2'
p2440
I1242
sS'p3'
p2441
I1897
sS'p1'
p2442
I1036
sS'llcp'
p2443
I2365
sS'grains'
p2444
I1303
sS'solid'
p2445
I890
sS'straight'
p2446
I1599
sS'batch'
p2447
I1600
sS'while'
p2448
I206
sS'electrochemical'
p2449
I2843
sS'superposed'
p2450
I1411
sS'sublayers'
p2451
I1475
sS'reliably'
p2452
I1898
sS'error'
p2453
I964
sS'resultantly'
p2454
I3138
sS'guide'
p2455
I183
sS'loop'
p2456
I1243
sS'shortened'
p2457
I2401
sS'concurrently'
p2458
I3305
sS'agitation'
p2459
I3306
sS'backing'
p2460
I1244
sS'gel'
p2461
I1899
sS'herein'
p2462
I1412
sS'reads'
p2463
I2402
sS'itself'
p2464
I1413
sS'anode'
p2465
I838
sS'ready'
p2466
I3307
sS'rie'
p2467
I1245
sS'concentration'
p2468
I2366
sS'currents'
p2469
I683
sS'ethylene'
p2470
I1601
sS'shorted'
p2471
I3309
sS'lengths'
p2472
I2035
sS'shorten'
p2473
I1900
sS'preferentially'
p2474
I3310
sS'elevated'
p2475
I1124
sS'wherein'
p2476
I188
sS'shorter'
p2477
I2404
sS'sliders'
p2478
I494
sS'ineffective'
p2479
I2874
sS'overlayer'
p2480
I1901
sS'virtually'
p2481
I1902
sS'widely'
p2482
I3312
sS'energizing'
p2483
I2635
sS'proved'
p2484
I2823
sS'ray'
p2485
I1246
sS'photolithographic'
p2486
I891
sS'failure'
p2487
I2405
sS'higher'
p2488
I340
sS'used'
p2489
I148
sS'optic'
p2490
I3315
sS'paths'
p2491
I1903
sS'flows'
p2492
I1414
sS'principally'
p2493
I3428
sS'moment'
p2494
I653
sS'levels'
p2495
I2480
sS'uses'
p2496
I684
sS'stripe'
p2497
I366
sS'aggregate'
p2498
I1415
sS'robust'
p2499
I3318
sS'fabrication'
p2500
I381
sS'retracted'
p2501
I3248
sS'deflects'
p2502
I3319
sS'lower'
p2503
I55
sS'task'
p2504
I3320
sS'underlies'
p2505
I3321
sS'joint'
p2506
I3286
sS'conife'
p2507
I1603
sS'edge'
p2508
I115
sS'y'
p2509
I685
sS'frictional'
p2510
I3430
sS'comprise'
p2511
I923
sS'distances'
p2512
I2406
sS'kerfs'
p2513
I2407
sS'interferes'
p2514
I3249
sS'leaking'
p2515
I2408
sS'resistive'
p2516
I207
sS'saturates'
p2517
I3546
sS'5aa'
p2518
I3611
sS'shape'
p2519
I277
sS'intervals'
p2520
I2409
sS'atomic'
p2521
I839
sS'distanced'
p2522
I1908
sS'behind'
p2523
I2229
sS'spatially'
p2524
I1909
sS'alternative'
p2525
I1247
sS'</s>'
p2526
I3674
sS'alignment'
p2527
I428
sS'gt'
p2528
I3324
sS'onset'
p2529
I3325
sS'loading'
p2530
I1321
sS'destroyed'
p2531
I2629
sS'slidably'
p2532
I2087
sS'also'
p2533
I102
sS'alternate'
p2534
I3328
sS'cancelling'
p2535
I3282
sS'exclusively'
p2536
I1910
sS'signals'
p2537
I445
sS'source'
p2538
I654
sS'causing'
p2539
I1069
sS'location'
p2540
I754
sS'cds1'
p2541
I3329
sS'disulfide'
p2542
I2410
sS'input'
p2543
I840
sS'clamping'
p2544
I2411
sS'remaining'
p2545
I655
sS'11a'
p2546
I3238
sS'format'
p2547
I1499
sS'couple'
p2548
I1911
sS'emanating'
p2549
I1604
sS'bit'
p2550
I1912
sS'projects'
p2551
I3331
sS'helpful'
p2552
I3332
sS'rotate'
p2553
I3333
sS'pertinent'
p2554
I3334
sS'd'
p2555
I967
sS'shaped'
p2556
I341
sS'signal'
p2557
I147
sS'disks'
p2558
I1417
sS'separately'
p2559
I1914
sS'flux'
p2560
I75
sS'deleterious'
p2561
I1605
sS'yields'
p2562
I2795
sS'clad'
p2563
I2027
sS'spins'
p2564
I2413
sS'velocities'
p2565
I2414
sS'methods'
p2566
I551
sS'spring'
p2567
I1418
sS'cohfnbfe'
p2568
I3337
sS'some'
p2569
I841
sS'back'
p2570
I238
sS'buildup'
p2571
I3339
sS'towards'
p2572
I1400
sS'examples'
p2573
I3340
sS'apc'
p2574
I1525
sS'oscillations'
p2575
I3341
sS'workpoint'
p2576
I3342
sS'transversely'
p2577
I1607
sS'distorting'
p2578
I2612
sS'pronounced'
p2579
I3343
sS'gradually'
p2580
I968
sS'retry'
p2581
I3344
sS'contacts'
p2582
I567
sS'affects'
p2583
I3345
sS'measurements'
p2584
I3346
sS'integration'
p2585
I1517
sS'per'
p2586
I1608
sS'waveform'
p2587
I2415
sS'efficiencies'
p2588
I2416
sS'connecting'
p2589
I320
sS'eliminate'
p2590
I723
sS'recessing'
p2591
I3347
sS'minimal'
p2592
I1248
sS'inclination'
p2593
I811
sS'inserting'
p2594
I2129
sS'be'
p2595
I47
sS'varying'
p2596
I2149
sS'replaced'
p2597
I1813
sS'run'
p2598
I3351
sS'antistripping'
p2599
I2417
sS'bn'
p2600
I3352
sS'processing'
p2601
I400
sS'bi'
p2602
I1006
sS'stem'
p2603
I3353
sS'step'
p2604
I226
sS'licoo'
p2605
I1762
sS'bs'
p2606
I1419
sS'relating'
p2607
I3354
sS'carbide'
p2608
I1420
sS'by'
p2609
I24
sS'consumption'
p2610
I3355
sS'recites'
p2611
I3356
sS'stationary'
p2612
I3357
sS'completing'
p2613
I3358
sS'unintentional'
p2614
I2169
sS'range'
p2615
I401
sS'extensions'
p2616
I3360
sS'p1t'
p2617
I3361
sS'megnetic'
p2618
I3362
sS'consequently'
p2619
I1609
sS'therethrough'
p2620
I2419
sS'block'
p2621
I842
sS'disclosure'
p2622
I2917
sS'significant'
p2623
I1249
sS'stitched'
p2624
I1610
sS'into'
p2625
I193
sS'helical'
p2626
I935
sS'satisfactory'
p2627
I3364
sS'encircling'
p2628
I1916
sS'vgmr'
p2629
I1917
sS'retaining'
p2630
I3365
sS'appropriate'
p2631
I1611
sS'primarily'
p2632
I2420
sS'frames'
p2633
I1918
sS'proportional'
p2634
I2421
sS'ellipse'
p2635
I2422
sS'reworked'
p2636
I3366
sS'oxidized'
p2637
I1612
sS'rows'
p2638
I1037
sS'ao'
p2639
I3367
sS'few'
p2640
I3368
sS'multilayer'
p2641
I843
sS'extremely'
p2642
I2423
sS'placing'
p2643
I1038
sS'long'
p2644
I1779
sS'capacitance'
p2645
I3369
sS'forward'
p2646
I1613
sS'etch'
p2647
I402
sS':'
p2648
I327
sS'sections'
p2649
I469
sS'manufacture'
p2650
I590
sS'considerably'
p2651
I2425
sS'photolithographically'
p2652
I3370
sS'reeving'
p2653
I3371
sS'adjusting'
p2654
I1096
sS'pedestals'
p2655
I2426
sS'searching'
p2656
I3620
sS'retrying'
p2657
I3374
sS'properly'
p2658
I3375
sS'enhancing'
p2659
I1920
sS'multilevel'
p2660
I3376
sS'delta'
p2661
I844
sS'unequal'
p2662
I3377
sS'line'
p2663
I446
sS'doubling'
p2664
I3174
sS'directed'
p2665
I1421
sS'inverse'
p2666
I1921
sS'electrolytic'
p2667
I2886
sS'rejection'
p2668
I1614
sS'consist'
p2669
I3379
sS'circuits'
p2670
I1125
sS'characteristic'
p2671
I569
sS'up'
p2672
I309
sS'CASE:Aa'
p2673
I3669
sS'cip'
p2674
I2429
sS'verification'
p2675
I3380
sS'planes'
p2676
I1250
sS'continuously'
p2677
I969
sS'fluctuations'
p2678
I2430
sS'z'
p2679
I686
sS'similar'
p2680
I893
sS'called'
p2681
I3381
sS'storing'
p2682
I3382
sS'constant'
p2683
I792
sS'defined'
p2684
I240
sS'flow'
p2685
I456
sS'flush'
p2686
I1665
sS'influence'
p2687
I1126
sS'metals'
p2688
I2433
sS'single'
p2689
I197
sS'fabricating'
p2690
I296
sS'interlocking'
p2691
I3302
sS'curl'
p2692
I3384
sS'defines'
p2693
I630
sS'inductors'
p2694
I2434
sS'%'
p2695
I403
sS'nicr'
p2696
I3050
sS'fixing'
p2697
I2435
sS'resistances'
p2698
I1251
sS'preventing'
p2699
I755
sS'application'
p2700
I1127
sS'electrical'
p2701
I134
sS'recognition'
p2702
I2431
sS'patterning'
p2703
I1039
sS'photoresist'
p2704
I198
sS'rhodium'
p2705
I3387
sS'elements'
p2706
I124
sS'generates'
p2707
I894
sS'excitation'
p2708
I2436
sS'aggregates'
p2709
I1252
sS'problems'
p2710
I1128
sS'lens'
p2711
I1615
sS'bonding'
p2712
I570
sS'allowing'
p2713
I895
sS'sides'
p2714
I269
sS'structure'
p2715
I56
sS'furthest'
p2716
I3388
sS'independently'
p2717
I1423
sS'e'
p2718
I404
sS'wafer'
p2719
I187
sS'practically'
p2720
I2438
sS'electroplated'
p2721
I1616
sS'required'
p2722
I845
sS'holes'
p2723
I1913
sS'midst'
p2724
I3389
sS'calculates'
p2725
I2817
sS'antireflection'
p2726
I1253
sS'depth'
p2727
I687
sS'carrying'
p2728
I1431
sS'ternary'
p2729
I2440
sS'submicrometer'
p2730
I3392
sS'svt'
p2731
I3393
sS'requires'
p2732
I2441
sS'having'
p2733
I40
sS'proximate'
p2734
I846
sS'once'
p2735
I1424
sS'magnetically'
p2736
I160
sS'code'
p2737
I1923
sS'partial'
p2738
I1254
sS'edg'
p2739
I3394
sS'scratches'
p2740
I3395
sS'amplifier'
p2741
I970
sS'resistance'
p2742
I103
sS'cobalt'
p2743
I591
sS'ge'
p2744
I2442
sS'softer'
p2745
I2443
sS'overlap'
p2746
I1056
sS'ga'
p2747
I3396
sS'amplified'
p2748
I3397
sS'adjustment'
p2749
I3143
sS'centers'
p2750
I3399
sS'compact'
p2751
I2311
sS'overlapping'
p2752
I1671
sS'edgewise'
p2753
I3401
sS'concerned'
p2754
I3402
sS'stably'
p2755
I3403
sS'granular'
p2756
I1255
sS'esd'
p2757
I1985
sS'constituted'
p2758
I1090
sS'stable'
p2759
I897
sS'include'
p2760
I175
sS'tensile'
p2761
I1990
sS'surfactant'
p2762
I3406
sS'arrayed'
p2763
I2445
sS'agents'
p2764
I3293
sS'disconnected'
p2765
I3133
sS'continues'
p2766
I2446
sS'readout'
p2767
I1925
sS'electron'
p2768
I1129
sS'crosses'
p2769
I3407
sS'mixing'
p2770
I3408
sS'continued'
p2771
I2447
sS'molar'
p2772
I2448
sS'entire'
p2773
I756
sS'vndx'
p2774
I3390
sS'transmission'
p2775
I793
sS'positions'
p2776
I1256
sS'leveled'
p2777
I3410
sS'shock'
p2778
I1926
sS'this'
p2779
I96
sS'registers'
p2780
I3411
sS'inspection'
p2781
I2449
sS'configurations'
p2782
I1927
sS'encloses'
p2783
I2450
sS'sacrificial'
p2784
I411
sS'compensated'
p2785
I3413
sS'disordered'
p2786
I2451
sS'diced'
p2787
I2299
sS'followability'
p2788
I3414
sS'modified'
p2789
I3415
sS'planarize'
p2790
I1890
sS'enclosed'
p2791
I1928
sS'growing'
p2792
I3416
sS'protrude'
p2793
I1231
sS'grooves'
p2794
I656
sS'acid'
p2795
I1425
sS'odd'
p2796
I3417
sS'leakage'
p2797
I1257
sS'zr'
p2798
I1277
sS'optimize'
p2799
I2454
sS'apparatus'
p2800
I315
sS'assisted'
p2801
I1617
sS'slight'
p2802
I2336
sS'expressed'
p2803
I3419
sS'access'
p2804
I1618
sS'poles'
p2805
I264
sS'currently'
p2806
I3420
sS'flowing'
p2807
I571
sS'3b'
p2808
I3421
sS';'
p2809
I90
sS'waveguide'
p2810
I1426
sS'body'
p2811
I201
sS'advantageously'
p2812
I1258
sS'degree'
p2813
I376
sS'exchange'
p2814
I444
sS'respectively'
p2815
I348
sS'spacing'
p2816
I592
sS'indicator'
p2817
I3261
sS'delivering'
p2818
I3422
sS'desired'
p2819
I429
sS'packing'
p2820
I3423
sS'focused'
p2821
I631
sS'sink'
p2822
I3424
sS'separation'
p2823
I430
sS'making'
p2824
I342
sS'sine'
p2825
I3425
sS'widening'
p2826
I2455
sS'great'
p2827
I1619
sS'engage'
p2828
I3426
sS'securing'
p2829
I2456
sS'receive'
p2830
I3427
sS'larger'
p2831
I372
sS'leaving'
p2832
I1427
sS'tantalum'
p2833
I1428
sS'resulting'
p2834
I632
sS'popcorn'
p2835
I1904
sS'implement'
p2836
I3429
sS'makes'
p2837
I689
sS'involves'
p2838
I2457
sS'biases'
p2839
I3082
sS'composed'
p2840
I310
sS'inflection'
p2841
I1405
sS'stabilization'
p2842
I1620
sS'addresses'
p2843
I3432
sS'zn'
p2844
I2458
sS'convexity'
p2845
I3433
sS'decrease'
p2846
I1621
sS'motor'
p2847
I1429
sS'composes'
p2848
I1622
sS'limb'
p2849
I2459
sS'apply'
p2850
I1430
sS'clockwise'
p2851
I3434
sS'tools'
p2852
I3435
sS'standing'
p2853
I3436
sS'use'
p2854
I227
sS'affording'
p2855
I3437
sS'from'
p2856
I39
sS'clocking'
p2857
I1930
sS'&'
p2858
I1130
sS'remains'
p2859
I1931
sS'urges'
p2860
I3629
sS'uniformly'
p2861
I2838
sS'next'
p2862
I1040
sS'annealing'
p2863
I2460
sS'filmstrip'
p2864
I898
sS'camera'
p2865
I633
sS'vehicle'
p2866
I3438
sS'themselves'
p2867
I2461
sS'chloride'
p2868
I2462
sS'conform'
p2869
I2957
sS'optimizing'
p2870
I2432
sS'comparison'
p2871
I1558
sS'ap2'
p2872
I2463
sS'becomes'
p2873
I1932
sS'inclined'
p2874
I593
sS'ap1'
p2875
I3440
sS'occurred'
p2876
I3441
sS'fexn'
p2877
I2464
sS'cooperate'
p2878
I1933
sS'opposing'
p2879
I328
sS'oxidic'
p2880
I2465
sS'normalized'
p2881
I3442
sS'diffuse'
p2882
I3443
sS'arranging'
p2883
I2466
sS'detects'
p2884
I1624
sS'iii'
p2885
I2467
sS'indented'
p2886
I1934
sS'stabilized'
p2887
I1131
sS'practicing'
p2888
I3444
sS'f'
p2889
I2468
sS'tunnel'
p2890
I688
sS'when'
p2891
I168
sS'recession'
p2892
I1259
sS'stabilizes'
p2893
I2469
sS'thin'
p2894
I19
sS'island'
p2895
I2470
sS'meet'
p2896
I2059
sS'purity'
p2897
I1625
sS'control'
p2898
I290
sS'od'
p2899
I3085
sS'tap'
p2900
I1132
sS'bent'
p2901
I3446
sS'do'
p2902
I1935
sS'process'
p2903
I101
sS'thermally'
p2904
I1432
sS'purposes'
p2905
I2471
sS'pieces'
p2906
I202
sS'high'
p2907
I72
sS'effectively'
p2908
I1260
sS'sufficently'
p2909
I3359
sS'delamination'
p2910
I3447
sS'bend'
p2911
I3448
sS'employs'
p2912
I1133
sS'interrupted'
p2913
I2481
sS'junctions'
p2914
I2472
sS'afm'
p2915
I1134
sS'embodiment'
p2916
I140
sS'varied'
p2917
I2473
sS'hydrophilic'
p2918
I2474
sS'noises'
p2919
I2475
sS'arrangement'
p2920
I1261
sS'regions'
p2921
I388
sS'located'
p2922
I153
sS'varies'
p2923
I1626
sS'carrier'
p2924
I602
sS'elliptical'
p2925
I1041
sS'aft'
p2926
I3449
sS'cladding'
p2927
I1936
sS'sih'
p2928
I2476
sS'sio'
p2929
I1136
sS'sin'
p2930
I3450
sS'filament'
p2931
I2477
sS'circular'
p2932
I1137
sS'profile'
p2933
I1433
sS'abrasive'
p2934
I1906
sS'blocks'
p2935
I1937
sS'frustum'
p2936
I1938
sS'db'
p2937
I1939
sS'immersed'
p2938
I3452
sS'act'
p2939
I3542
sS'masks'
p2940
I3454
sS'uniaxial'
p2941
I1138
sS'concentrations'
p2942
I3455
sS'magnetizations'
p2943
I1139
sS'magnetostriction'
p2944
I794
sS'foremost'
p2945
I2478
sS'efficiently'
p2946
I3456
sS'realized'
p2947
I2479
sS'induction'
p2948
I2002
sS'light'
p2949
I757
sS'straps'
p2950
I3457
sS'lines'
p2951
I848
sS'texturing'
p2952
I1445
sS'manganese'
p2953
I2482
sS'element'
p2954
I32
sS'ferrite'
p2955
I470
sS'synchronization'
p2956
I3266
sS'counterbalances'
p2957
I3458
sS'realizes'
p2958
I2483
sS'allow'
p2959
I1263
sS'magnetostatic'
p2960
I1434
sS'alloy'
p2961
I232
sS'subsequently'
p2962
I1264
sS's1'
p2963
I1772
sS'unvaried'
p2964
I3459
sS'erasing'
p2965
I1140
sS'pulsed'
p2966
I3460
sS'saturated'
p2967
I795
sS'closely'
p2968
I2484
sS'produces'
p2969
I1435
sS'move'
p2970
I3461
sS'produced'
p2971
I447
sS'combinations'
p2972
I3267
sS'magnetoelectric'
p2973
I3462
sS'pulses'
p2974
I1042
sS'polished'
p2975
I663
sS'facilitates'
p2976
I594
sS'seedlayers'
p2977
I1692
sS'boosts'
p2978
I3463
sS'chemical'
p2979
I367
sS'outer'
p2980
I329
sS'depthwise'
p2981
I3464
sS'chosen'
p2982
I1436
sS'lo'
p2983
I3465
sS'masses'
p2984
I1628
sS'li'
p2985
I1942
sS'lt'
p2986
I1266
sS'permanent'
p2987
I531
sS'degrees'
p2988
I1267
sS'insulator'
p2989
I303
sS'unbounded'
p2990
I3092
sS'orange'
p2991
I2486
sS'covered'
p2992
I431
sS'iridium'
p2993
I3466
sS'freely'
p2994
I3467
sS'defining'
p2995
I448
sS'pixel'
p2996
I3468
sS'flex'
p2997
I1561
sS'designs'
p2998
I2940
sS'junction'
p2999
I658
sS'greater'
p3000
I389
sS'surrounds'
p3001
I1269
sS'material'
p3002
I37
sS'innermost'
p3003
I1629
sS'cutting'
p3004
I2488
sS'asymmetrical'
p3005
I1630
sS'front'
p3006
I161
sS'traverses'
p3007
I2181
sS'rotation'
p3008
I2489
sS'CASE:aa'
p3009
I3667
sS'columned'
p3010
I3472
sS'transparent'
p3011
I971
sS'dielectric'
p3012
I316
sS'cofeon'
p3013
I2490
sS'smoothly'
p3014
I2153
sS'preclude'
p3015
I2491
sS'concave'
p3016
I1043
sS'identified'
p3017
I3473
sS'circuited'
p3018
I3330
sS'sufficiently'
p3019
I1044
sS'slide'
p3020
I2492
sS'magnitude'
p3021
I1142
sS'transmitted'
p3022
I3474
sS'mode'
p3023
I690
sS'electrically'
p3024
I135
sS'crossing'
p3025
I1631
sS'cocoon'
p3026
I1632
sS'beneath'
p3027
I1143
sS'traces'
p3028
I1438
sS'depression'
p3029
I1929
sS'experienced'
p3030
I3476
sS'reproducing'
p3031
I278
sS'attachments'
p3032
I1944
sS'nanometers'
p3033
I3139
sS'interlayer'
p3034
I1144
sS'bump'
p3035
I2493
sS'encapsulating'
p3036
I1755
sS'related'
p3037
I972
sS'inverted'
p3038
I3477
sS'constitute'
p3039
I1270
sS'frequency'
p3040
I595
sS'static'
p3041
I1946
sS'remarkably'
p3042
I2495
sS'calibrate'
p3043
I3478
sS'sectional'
p3044
I1633
sS'separating'
p3045
I1271
sS'relates'
p3046
I1439
sS'lithography'
p3047
I1634
sS'transitions'
p3048
I1045
sS'tenth'
p3049
I2496
sS'out'
p3050
I553
sS'lastly'
p3051
I3095
sS'matrix'
p3052
I1635
sS"'"
p3053
I349
sS'shallow'
p3054
I2508
sS'valve'
p3055
I297
sS'relate'
p3056
I3479
sS'wholly'
p3057
I2497
sS'stud'
p3058
I1046
sS'evacuation'
p3059
I1773
sS'electronics'
p3060
I2498
sS'plural'
p3061
I900
sS'integrated'
p3062
I901
sS'feconi'
p3063
I2499
sS'approached'
p3064
I3481
sS'endpoints'
p3065
I3482
sS'interactions'
p3066
I1636
sS'spot'
p3067
I3483
sS'discontinuity'
p3068
I1947
sS'promptly'
p3069
I2500
sS'strap'
p3070
I2125
sS'acetone'
p3071
I3066
sS'completely'
p3072
I902
sS'collection'
p3073
I3484
sS'interdiffusion'
p3074
I1948
sS'indicates'
p3075
I2891
sS'subpoles'
p3076
I2501
sS'likelihood'
p3077
I3485
sS'compositions'
p3078
I2600
sS'shortest'
p3079
I3487
sS'resistors'
p3080
I1637
sS'corrosion'
p3081
I758
sS'organic'
p3082
I596
sS'elastic'
p3083
I2563
sS'g'
p3084
I597
sS'geometry'
p3085
I589
sS'determining'
p3086
I1638
sS'could'
p3087
I1950
sS'put'
p3088
I3488
sS'times'
p3089
I555
sS'length'
p3090
I258
sS'noncorrosive'
p3091
I3490
sS'assumed'
p3092
I3491
sS'hence'
p3093
I1951
sS'interconnections'
p3094
I3219
sS'approaching'
p3095
I3492
sS'facilitate'
p3096
I849
sS'crystallographic'
p3097
I3493
sS'spans'
p3098
I3494
sS'staggered'
p3099
I1639
sS'possessing'
p3100
I2502
sS'hydrogenated'
p3101
I2040
sS'reaches'
p3102
I1440
sS'disposed'
p3103
I132
sS'alleys'
p3104
I1441
sS'spots'
p3105
I3496
sS'cofev'
p3106
I1640
sS'reached'
p3107
I3497
sS'precisely'
p3108
I659
sS'quality'
p3109
I1952
sS'rs1'
p3110
I2503
sS'biasing'
p3111
I343
sS'machinability'
p3112
I3272
sS'multilayered'
p3113
I2504
sS'stencil'
p3114
I2505
sS'stands'
p3115
I3498
sS'reference'
p3116
I491
sS'nonconducting'
p3117
I2655
sS'curing'
p3118
I1442
sS'laps'
p3119
I3500
sS'system'
p3120
I127
sS'relations'
p3121
I3501
sS'their'
p3122
I390
sS'intermediate'
p3123
I432
sS'charging'
p3124
I1953
sS'branches'
p3125
I2506
sS'final'
p3126
I1146
sS'scans'
p3127
I1526
sS'fluid'
p3128
I2703
sS'configure'
p3129
I3502
sS'estimate'
p3130
I2403
sS'completed'
p3131
I1317
sS'transistor'
p3132
I807
sS'crni'
p3133
I1641
sS'slider'
p3134
I87
sS'targeted'
p3135
I3558
sS'diminish'
p3136
I2074
sS'solenoidal'
p3137
I1443
sS'resist'
p3138
I419
sS'isolation'
p3139
I3470
sS'vanadium'
p3140
I1955
sS'depends'
p3141
I1977
sS'limiting'
p3142
I3505
sS'inversely'
p3143
I3506
sS'compensation'
p3144
I1444
sS'transducer'
p3145
I71
sS'amplitude'
p3146
I1177
sS'bare'
p3147
I3431
sS'providing'
p3148
I199
sS'pvd'
p3149
I2171
sS'collecting'
p3150
I2033
sS'tracts'
p3151
I3509
sS'permitted'
p3152
I2885
sS'recesses'
p3153
I1147
sS'fluctuation'
p3154
I2511
sS'sv'
p3155
I2190
sS'neel'
p3156
I1957
sS'recessed'
p3157
I415
sS'ultrasonic'
p3158
I2512
sS'have'
p3159
I125
sS'chambers'
p3160
I3510
sS'throat'
p3161
I330
sS'curved'
p3162
I904
sS'cantilever'
p3163
I2851
sS'constrained'
p3164
I3511
sS'viewed'
p3165
I1446
sS'illuminated'
p3166
I1958
sS'acceleration'
p3167
I3512
sS'angle'
p3168
I302
sS'min'
p3169
I2513
sS'maskable'
p3170
I2765
sS'actuators'
p3171
I3513
sS'therewith'
p3172
I2514
sS'able'
p3173
I1272
sS'si'
p3174
I1228
sS'mig'
p3175
I2146
sS'contour'
p3176
I888
sS'polarization'
p3177
I2516
sS'which'
p3178
I25
sS'prismoid'
p3179
I1447
sS'equaling'
p3180
I3514
sS'writ'
p3181
I3515
sS'detector'
p3182
I906
sS'subject'
p3183
I1959
sS'='
p3184
I532
sS'accuracy'
p3185
I634
sS'connected'
p3186
I158
sS'but'
p3187
I533
sS'cracking'
p3188
I3516
sS'device'
p3189
I99
sS'tests'
p3190
I3517
sS'segment'
p3191
I492
sS'class'
p3192
I3519
sS'volume'
p3193
I2565
sS'placement'
p3194
I2517
sS'subtracted'
p3195
I3520
sS'radiating'
p3196
I3521
sS'neighboring'
p3197
I3522
sS'neutral'
p3198
I3523
sS'face'
p3199
I164
sS'pure'
p3200
I2900
sS'tapers'
p3201
I3524
sS'mechanical'
p3202
I635
sS'constrain'
p3203
I3525
sS'normally'
p3204
I3526
sS'fact'
p3205
I2518
sS'atmosphere'
p3206
I2519
sS'recess'
p3207
I636
sS'bulging'
p3208
I3527
sS'vpdx'
p3209
I3528
sS'supported'
p3210
I850
sS'terminate'
p3211
I1643
sS'dbd'
p3212
I3529
sS'motional'
p3213
I3059
sS'rotating'
p3214
I1273
sS'overhangs'
p3215
I2282
sS'artificial'
p3216
I2716
sS'inductor'
p3217
I1149
sS'attainable'
p3218
I3105
sS'spindle'
p3219
I3531
sS'thicker'
p3220
I1960
sS'shoes'
p3221
I3532
sS'q1'
p3222
I3533
sS'nearer'
p3223
I2868
sS'q2'
p3224
I3535
sS'based'
p3225
I350
sS'holder'
p3226
I2966
sS'('
p3227
I27
sS'magnesia'
p3228
I2520
sS'specified'
p3229
I3383
sS'controls'
p3230
I2521
sS'should'
p3231
I1449
sS'terminal'
p3232
I510
sS'reactive'
p3233
I796
sS'uninterrupted'
p3234
I3536
sS'tape'
p3235
I178
sS'replenishing'
p3236
I2175
sS'gradual'
p3237
I2522
sS'attained'
p3238
I1645
sS'employed'
p3239
I534
sS'anneal'
p3240
I2437
sS'achieve'
p3241
I1275
sS'areal'
p3242
I1276
sS'crosstalk'
p3243
I3539
sS'cooperation'
p3244
I2718
sS'means'
p3245
I572
sS'lobe'
p3246
I3540
sS'convert'
p3247
I2397
sS'lithographically'
p3248
I1450
sS'impinging'
p3249
I3541
sS'overall'
p3250
I1961
sS'stripes'
p3251
I637
sS'arcing'
p3252
I1714
sS'beam'
p3253
I298
sS'aforementioned'
p3254
I1451
sS'timing'
p3255
I797
sS'arranged'
p3256
I275
sS'he'
p3257
I3538
sS'chips'
p3258
I1962
sS'shaping'
p3259
I3543
sS'areas'
p3260
I851
sS'p1p'
p3261
I1646
sS'processes'
p3262
I973
sS'geometries'
p3263
I2523
sS'substrate'
p3264
I42
sS'densities'
p3265
I2524
sS'molybdenum'
p3266
I2525
sS'horizontally'
p3267
I3544
sS'h'
p3268
I798
sS'p2t'
p3269
I3017
sS'differential'
p3270
I598
sS'comprising'
p3271
I176
sS'solenoid'
p3272
I3545
sS'experiments'
p3273
I3338
sS'processed'
p3274
I1048
sS'contain'
p3275
I3547
sS'including'
p3276
I113
sS'fixed'
p3277
I299
sS'favoring'
p3278
I3209
sS'photodefinable'
p3279
I3549
sS'intervening'
p3280
I2527
sS'withstand'
p3281
I1713
sS'ttm'
p3282
I1778
sS'smooth'
p3283
I599
sS'configured'
p3284
I519
sS'cuts'
p3285
I1647
sS'module'
p3286
I1648
sS'operates'
p3287
I2529
sS'ruthenium'
p3288
I1649
sS'intensity'
p3289
I907
sS'computer'
p3290
I1963
sS'slanted'
p3291
I1782
sS'enhanced'
p3292
I908
sS'converting'
p3293
I1966
sS'operated'
p3294
I3553
sS'electrode'
p3295
I217
sS'configures'
p3296
I3554
sS'packed'
p3297
I3555
sS'conductivity'
p3298
I1650
sS'closer'
p3299
I1049
sS'coils'
p3300
I391
sS'gtoreq'
p3301
I2220
sS'wire'
p3302
I1964
sS'interacting'
p3303
I3556
sS'placed'
p3304
I512
sS'pattern'
p3305
I119
sS'carriage'
p3306
I3557
sS'ltoreq'
p3307
I363
sS'nanogrinding'
p3308
I2092
sS'written'
p3309
I701
sS'difficulties'
p3310
I3559
sS'trapezoidal'
p3311
I1965
sS'mills'
p3312
I2531
sS'closed'
p3313
I759
sS'masking'
p3314
I1100
sS'understood'
p3315
I3561
sS'theta'
p3316
I852
sS'boundary'
p3317
I1278
sS'ends'
p3318
I194
sS'reproduced'
p3319
I1050
sS'superior'
p3320
I1120
sS'weak'
p3321
I3562
sS'however'
p3322
I1718
sS'efficiency'
p3323
I724
sS'reproduces'
p3324
I3563
sS'longitudinal'
p3325
I256
sS'configuration'
p3326
I449
sS'tripad'
p3327
I3564
sS'problem'
p3328
I764
sS'rosette'
p3329
I3565
sS'monopole'
p3330
I3566
sS'wiggle'
p3331
I2189
sS'burnishing'
p3332
I2620
sS'equal'
p3333
I317
sS'assure'
p3334
I1548
sS'grain'
p3335
I1452
sS'passing'
p3336
I799
sS'otherwise'
p3337
I1150
sS'come'
p3338
I3014
sS'adjusted'
p3339
I1551
sS'ch'
p3340
I3114
sS'co'
p3341
I660
sS'cm'
p3342
I1151
sS'wall'
p3343
I853
sS'ca'
p3344
I1651
sS'overcoat'
p3345
I373
sS'narrower'
p3346
I1051
sS'cf'
p3347
I3064
sS'distinguish'
p3348
I3570
sS'maximize'
p3349
I3571
sS'deflected'
p3350
I3572
sS'coercive'
p3351
I535
sS'respect'
p3352
I241
sS'narrowed'
p3353
I1280
sS'crystalline'
p3354
I1652
sS'chromium'
p3355
I1052
sS'cu'
p3356
I1152
sS'erased'
p3357
I3573
sS'deep'
p3358
I1453
sS'piecewise'
p3359
I3574
sS'addition'
p3360
I1053
sS'aligning'
p3361
I1281
sS'elongate'
p3362
I3507
sS'undercoat'
p3363
I1454
sS'thereover'
p3364
I1153
sS'magnetized'
p3365
I974
sS'erases'
p3366
I2038
sS'compensating'
p3367
I3575
sS'lr'
p3368
I2427
sS'utilizing'
p3369
I661
sS'columnar'
p3370
I1377
sS'define'
p3371
I399
sS'angled'
p3372
I1456
sS'asymmetrically'
p3373
I2535
sS'nickel'
p3374
I337
sS'lp'
p3375
I1771
sS'sufficient'
p3376
I1026
sS'protect'
p3377
I1457
sS'finished'
p3378
I1054
sS'ensuring'
p3379
I1969
sS'sensed'
p3380
I1154
sS'laminated'
p3381
I287
sS'inductance'
p3382
I1283
sS'decreased'
p3383
I1528
sS'last'
p3384
I3578
sS'an'
p3385
I15
sS'present'
p3386
I152
sS'multi'
p3387
I378
sS'novel'
p3388
I1458
sS'laser'
p3389
I1459
sS'unlike'
p3390
I1836
sS'align'
p3391
I3580
sS'appearance'
p3392
I3581
sS'value'
p3393
I379
sS'rectangular'
p3394
I1653
sS'will'
p3395
I1155
sS'encircled'
p3396
I2536
sS'balance'
p3397
I1685
sS'cvd'
p3398
I3582
sS'ultra'
p3399
I909
sS'discontinuation'
p3400
I3583
sS'layer'
p3401
I8
sS'electrodeposited'
p3402
I2487
sS'almost'
p3403
I1971
sS'molecular'
p3404
I2537
sS'thus'
p3405
I203
sS'readback'
p3406
I760
sS'surface'
p3407
I31
sS'dual'
p3408
I405
sS'laminates'
p3409
I3585
sS'claimed'
p3410
I3586
sS'phosphorous'
p3411
I3587
sS'gradients'
p3412
I2288
sS'sequentially'
p3413
I976
sS'productivity'
p3414
I2538
sS'metrology'
p3415
I3588
sS')'
p3416
I26
sS'radiation'
p3417
I601
sS'connection'
p3418
I433
sS'penetrate'
p3419
I3197
sS'member'
p3420
I180
sS'adverse'
p3421
I1460
sS'coherency'
p3422
I1654
sS'parts'
p3423
I244
sS'protruded'
p3424
I1972
sS'largest'
p3425
I2539
sS'units'
p3426
I1392
sS'helium'
p3427
I3177
sS'tapped'
p3428
I2541
sS'controllably'
p3429
I3195
sS'difficult'
p3430
I3589
sS'inductively'
p3431
I1973
sS'cubic'
p3432
I1156
sS'absorb'
p3433
I3590
sS'logic'
p3434
I2542
sS'upon'
p3435
I392
sS'effect'
p3436
I162
sS'ion'
p3437
I265
sS'expand'
p3438
I3235
sS'e1'
p3439
I3592
sS'energized'
p3440
I1868
sS'scarcely'
p3441
I3594
sS'off'
p3442
I471
sS'center'
p3443
I351
sS'i'
p3444
I638
sS'modeled'
p3445
I3246
sS'well'
p3446
I573
sS'misregistration'
p3447
I3596
sS'finds'
p3448
I3597
sS'patterns'
p3449
I693
sS'sets'
p3450
I1284
sS'firstly'
p3451
I3598
sS'position'
p3452
I208
sS'sensing'
p3453
I221
sS'usual'
p3454
I3599
sS'bending'
p3455
I3600
sS'26b'
p3456
I1770
sS'26a'
p3457
I1974
sS'magnetization'
p3458
I129
sS'flown'
p3459
I3316
sS'less'
p3460
I245
sS'moments'
p3461
I1655
sS'subgap'
p3462
I1656
sS'proximity'
p3463
I1234
sS'obtain'
p3464
I725
sS'sources'
p3465
I1658
sS'batteries'
p3466
I1285
sS'stored'
p3467
I961
sS'metallization'
p3468
I1975
sS'voltage'
p3469
I726
sS'tetragonal'
p3470
I3471
sS'protecting'
p3471
I2543
sS'purified'
p3472
I3603
sS'sputtering'
p3473
I662
sS'taken'
p3474
I2820
sS'tgmr'
p3475
I3604
sS'density'
p3476
I137
sS'absorption'
p3477
I3605
sS'supply'
p3478
I1892
sS'deposits'
p3479
I2544
sS'capabilities'
p3480
I2545
sS'realize'
p3481
I1659
sS'simple'
p3482
I1893
sS'valid'
p3483
I2547
sS'extends'
p3484
I344
sS'nor'
p3485
I2933
sS'wet'
p3486
I1055
sS'usage'
p3487
I1976
sS'gmr'
p3488
I246
sS'possess'
p3489
I2934
sS'ski'
p3490
I910
sS'match'
p3491
I1660
sS'identical'
p3492
I1661
sS'saturation'
p3493
I211
sS'increased'
p3494
I406
sS'redeposition'
p3495
I3608
sS'interfacially'
p3496
I3609
sS'recharging'
p3497
I2548
sS'increases'
p3498
I856
sS'were'
p3499
I3610
sS'installed'
p3500
I3348
sS'immediately'
p3501
I1663
sS'intersection'
p3502
I2549
sS'essential'
p3503
I3336
sS'loss'
p3504
I1157
sS'necessary'
p3505
I1664
sS'like'
p3506
I416
sS'excluding'
p3507
I3612
sS'sizes'
p3508
I2550
sS'alternatively'
p3509
I977
sS'porous'
p3510
I3613
sS'resin'
p3511
I857
sS'sized'
p3512
I3614
sS'mhz'
p3513
I2551
sS'epoxy'
p3514
I1978
sS'lose'
p3515
I3615
sS'become'
p3516
I1158
sS'disposing'
p3517
I2552
sS'soft'
p3518
I145
sS'therein'
p3519
I761
sS'poor'
p3520
I3617
sS'exceed'
p3521
I3618
sS'because'
p3522
I911
sS'sequence'
p3523
I1462
sS'discontinuities'
p3524
I3619
sS'thief'
p3525
I3373
sS'motive'
p3526
I1979
sS'constructively'
p3527
I3621
sS'growth'
p3528
I1967
sS'convex'
p3529
I993
sS'proper'
p3530
I1286
sS'5ab'
p3531
I3622
sS'transport'
p3532
I1159
sS'tmr'
p3533
I1160
sS'charges'
p3534
I1033
sS'lead'
p3535
I154
sS'trimmed'
p3536
I3623
sS'leak'
p3537
I3391
sS'avoid'
p3538
I1287
sS'separate'
p3539
I715
sS'inhibit'
p3540
I3625
sS'grinding'
p3541
I896
sS'bifurcated'
p3542
I3626
sS'does'
p3543
I801
sS'hardbaked'
p3544
I2555
sS'electroplating'
p3545
I762
sS'locate'
p3546
I3627
sS'noise'
p3547
I222
sS'coated'
p3548
I763
sS'simultaneous'
p3549
I3311
sS'overlies'
p3550
I912
sS'selecting'
p3551
I1666
sS'lessens'
p3552
I2556
sS'expansion'
p3553
I1464
sS'pressure'
p3554
I574
sS'offset'
p3555
I695
sS'stage'
p3556
I1980
sS'harmonic'
p3557
I3569
sS'about'
p3558
I247
sS'carried'
p3559
I913
sS'extension'
p3560
I1465
sS'column'
p3561
I1288
sS'elgs'
p3562
I3475
sS'compatible'
p3563
I1161
sS'carries'
p3564
I2559
sS'hbsat'
p3565
I1135
sS'unidirectional'
p3566
I2560
sS'bounded'
p3567
I2337
sS'introduced'
p3568
I1162
sS'damp'
p3569
I3630
sS'equally'
p3570
I1981
sS'own'
p3571
I3631
sS'sintered'
p3572
I1265
sS'hwx'
p3573
I3632
sS'keeps'
p3574
I3633
sS'previously'
p3575
I1289
sS'h3'
p3576
I2561
sS'h1'
p3577
I1982
sS'diffusable'
p3578
I1810
sS'outward'
p3579
I3634
sS'guard'
p3580
I2562
sS'weighted'
p3581
I2050
sS'registration'
p3582
I3636
sS'consecutively'
p3583
I3637
sS'terminated'
p3584
I1466
sS'ridge'
p3585
I1667
sS'additional'
p3586
I575
sS'heated'
p3587
I2494
sS'microdevice'
p3588
I3638
sS'transfer'
p3589
I914
sS'vertline'
p3590
I1668
sS'spiral'
p3591
I802
sS'trenches'
p3592
I1669
sS'lowermost'
p3593
I1404
sS'quadratic'
p3594
I3639
sS'inner'
p3595
I417
sS'resists'
p3596
I3640
sS'phosphorus'
p3597
I1983
sS'ensured'
p3598
I1597
sS'function'
p3599
I554
sS'proportion'
p3600
I3641
sS'overlaps'
p3601
I2444
sS'superstrate'
p3602
I1291
sS'extended'
p3603
I999
sS'damascene'
p3604
I1448
sS'insured'
p3605
I3642
sS'repeated'
p3606
I2566
sS'construction'
p3607
I858
sS'automated'
p3608
I1738
sS'hc'
p3609
I1984
sS'hf'
p3610
I978
sS'hg'
p3611
I2567
sS'illustrative'
p3612
I3644
sS'partially'
p3613
I915
sS'made'
p3614
I259
sS'phosphoric'
p3615
I2554
sS'converter'
p3616
I3645
sS'places'
p3617
I2569
sS'whether'
p3618
I3646
sS'antiferromagnetic'
p3619
I260
sS'cells'
p3620
I2570
sS'j'
p3621
I3647
sS'variations'
p3622
I1292
sS'antireflective'
p3623
I3648
sS'knoop'
p3624
I3649
sS'record'
p3625
I600
sS'below'
p3626
I603
sS'projecting'
p3627
I696
sS'limit'
p3628
I3308
sS'detectable'
p3629
I3651
sS'distribution'
p3630
I1279
sS'piece'
p3631
I177
sS'urging'
p3632
I2571
sS'bearing'
p3633
I95
sS'farthest'
p3634
I3652
sS'intersects'
p3635
I2572
sS'pin'
p3636
I916
sS'curve'
p3637
I1672
sS'contribute'
p3638
I3653
sS'linearity'
p3639
I2573
sS'backside'
p3640
I2952
sS'ink'
p3641
I3654
sS'permeability'
p3642
I374
sS'trailing'
p3643
I291
sS'proceeds'
p3644
I3655
sS'cmos'
p3645
I3656
sS'deeper'
p3646
I3657
sS'effected'
p3647
I3658
sS'functions'
p3648
I1057
sS'compared'
p3649
I1058
sS'relaxing'
p3650
I3659
sS'calibration'
p3651
I3595
sS'percent'
p3652
I1163
sS'perpendicularly'
p3653
I1469
sS'virtual'
p3654
I1293
sS'adequately'
p3655
I3314
sS'smears'
p3656
I3662
sS'other'
p3657
I97
sS'spirally'
p3658
I2574
sS'u'
p3659
I1467
sS'contacting'
p3660
I1059
sS'sloping'
p3661
I1468
sS'rectilinearity'
p3662
I3096
sS'flange'
p3663
I3663
sS'variation'
p3664
I859
sS'foil'
p3665
I1294
sS'additionally'
p3666
I1295
sS'resister'
p3667
I3664
sS'exposure'
p3668
I473
sS'auxiliary'
p3669
I474
sS'nonmagnetic'
p3670
I159
sS'apertures'
p3671
I3665
sS'factors'
p3672
I2576
sS'portion'
p3673
I34
sS'4a'
p3674
I3667
sS'baked'
p3675
I1296
sS'magnetizing'
p3676
I1297
sS'demodulator'
p3677
I3666
saI309
a.